
FinalProject.elf:     file format elf32-littlearm

Sections:
Idx Name          Size      VMA       LMA       File off  Algn
  0 .isr_vector   0000018c  08000000  08000000  00001000  2**0
                  CONTENTS, ALLOC, LOAD, READONLY, DATA
  1 .text         00000db4  0800018c  0800018c  0000118c  2**2
                  CONTENTS, ALLOC, LOAD, READONLY, CODE
  2 .rodata       00000008  08000f40  08000f40  00001f40  2**2
                  CONTENTS, ALLOC, LOAD, READONLY, DATA
  3 .ARM.extab    00000000  08000f48  08000f48  00001f58  2**0
                  CONTENTS, READONLY
  4 .ARM          00000008  08000f48  08000f48  00001f48  2**2
                  CONTENTS, ALLOC, LOAD, READONLY, DATA
  5 .preinit_array 00000000  08000f50  08000f58  00001f58  2**0
                  CONTENTS, ALLOC, LOAD, DATA
  6 .init_array   00000004  08000f50  08000f50  00001f50  2**2
                  CONTENTS, ALLOC, LOAD, READONLY, DATA
  7 .fini_array   00000004  08000f54  08000f54  00001f54  2**2
                  CONTENTS, ALLOC, LOAD, READONLY, DATA
  8 .data         00000000  20000000  20000000  00001f58  2**0
                  CONTENTS, ALLOC, LOAD, DATA
  9 .sram2        00000000  10000000  10000000  00001f58  2**0
                  CONTENTS
 10 .bss          00000030  20000000  20000000  00002000  2**2
                  ALLOC
 11 ._user_heap_stack 00000600  20000030  20000030  00002000  2**0
                  ALLOC
 12 .ARM.attributes 00000030  00000000  00000000  00001f58  2**0
                  CONTENTS, READONLY
 13 .debug_info   00001ed0  00000000  00000000  00001f88  2**0
                  CONTENTS, READONLY, DEBUGGING, OCTETS
 14 .debug_abbrev 00000769  00000000  00000000  00003e58  2**0
                  CONTENTS, READONLY, DEBUGGING, OCTETS
 15 .debug_aranges 000001b8  00000000  00000000  000045c8  2**3
                  CONTENTS, READONLY, DEBUGGING, OCTETS
 16 .debug_rnglists 00000137  00000000  00000000  00004780  2**0
                  CONTENTS, READONLY, DEBUGGING, OCTETS
 17 .debug_macro  0001d247  00000000  00000000  000048b7  2**0
                  CONTENTS, READONLY, DEBUGGING, OCTETS
 18 .debug_line   000023c7  00000000  00000000  00021afe  2**0
                  CONTENTS, READONLY, DEBUGGING, OCTETS
 19 .debug_str    000a2237  00000000  00000000  00023ec5  2**0
                  CONTENTS, READONLY, DEBUGGING, OCTETS
 20 .comment      00000043  00000000  00000000  000c60fc  2**0
                  CONTENTS, READONLY
 21 .debug_frame  00000500  00000000  00000000  000c6140  2**2
                  CONTENTS, READONLY, DEBUGGING, OCTETS
 22 .debug_line_str 0000007b  00000000  00000000  000c6640  2**0
                  CONTENTS, READONLY, DEBUGGING, OCTETS

Disassembly of section .text:

0800018c <__do_global_dtors_aux>:
 800018c:	b510      	push	{r4, lr}
 800018e:	4c05      	ldr	r4, [pc, #20]	@ (80001a4 <__do_global_dtors_aux+0x18>)
 8000190:	7823      	ldrb	r3, [r4, #0]
 8000192:	b933      	cbnz	r3, 80001a2 <__do_global_dtors_aux+0x16>
 8000194:	4b04      	ldr	r3, [pc, #16]	@ (80001a8 <__do_global_dtors_aux+0x1c>)
 8000196:	b113      	cbz	r3, 800019e <__do_global_dtors_aux+0x12>
 8000198:	4804      	ldr	r0, [pc, #16]	@ (80001ac <__do_global_dtors_aux+0x20>)
 800019a:	f3af 8000 	nop.w
 800019e:	2301      	movs	r3, #1
 80001a0:	7023      	strb	r3, [r4, #0]
 80001a2:	bd10      	pop	{r4, pc}
 80001a4:	20000000 	.word	0x20000000
 80001a8:	00000000 	.word	0x00000000
 80001ac:	08000f28 	.word	0x08000f28

080001b0 <frame_dummy>:
 80001b0:	b508      	push	{r3, lr}
 80001b2:	4b03      	ldr	r3, [pc, #12]	@ (80001c0 <frame_dummy+0x10>)
 80001b4:	b11b      	cbz	r3, 80001be <frame_dummy+0xe>
 80001b6:	4903      	ldr	r1, [pc, #12]	@ (80001c4 <frame_dummy+0x14>)
 80001b8:	4803      	ldr	r0, [pc, #12]	@ (80001c8 <frame_dummy+0x18>)
 80001ba:	f3af 8000 	nop.w
 80001be:	bd08      	pop	{r3, pc}
 80001c0:	00000000 	.word	0x00000000
 80001c4:	20000004 	.word	0x20000004
 80001c8:	08000f28 	.word	0x08000f28

080001cc <strcmp>:
 80001cc:	f810 2b01 	ldrb.w	r2, [r0], #1
 80001d0:	f811 3b01 	ldrb.w	r3, [r1], #1
 80001d4:	2a01      	cmp	r2, #1
 80001d6:	bf28      	it	cs
 80001d8:	429a      	cmpcs	r2, r3
 80001da:	d0f7      	beq.n	80001cc <strcmp>
 80001dc:	1ad0      	subs	r0, r2, r3
 80001de:	4770      	bx	lr

080001e0 <I2C_GPIO_init>:
//                          I2C Pin Initialization
// Configure I2C1_SCL (PB8) Pin as : Alternate function (AF4), High Speed, Open drain, No Pull up or Pull down
// Configure I2C1_SDA (PB9) Pin as : Alternate function (AF4), High Speed, Open drain, No Pull up or Pull down
//=============================================================================================================
void I2C_GPIO_init(void)
{
 80001e0:	b480      	push	{r7}
 80001e2:	af00      	add	r7, sp, #0

	RCC->AHB2ENR  |=  RCC_AHB2ENR_GPIOBEN;
 80001e4:	4b1a      	ldr	r3, [pc, #104]	@ (8000250 <I2C_GPIO_init+0x70>)
 80001e6:	6cdb      	ldr	r3, [r3, #76]	@ 0x4c
 80001e8:	4a19      	ldr	r2, [pc, #100]	@ (8000250 <I2C_GPIO_init+0x70>)
 80001ea:	f043 0302 	orr.w	r3, r3, #2
 80001ee:	64d3      	str	r3, [r2, #76]	@ 0x4c

	// GPIO Mode: Input(00, reset), Output(01), AlterFunc(10), Analog(11, reset)
	GPIOB->MODER   &= ~( 3U<<(2*I2C1_SCL) | 3U<<(2*I2C1_SDA) );  // Clear Mode
 80001f0:	4b18      	ldr	r3, [pc, #96]	@ (8000254 <I2C_GPIO_init+0x74>)
 80001f2:	681b      	ldr	r3, [r3, #0]
 80001f4:	4a17      	ldr	r2, [pc, #92]	@ (8000254 <I2C_GPIO_init+0x74>)
 80001f6:	f423 2370 	bic.w	r3, r3, #983040	@ 0xf0000
 80001fa:	6013      	str	r3, [r2, #0]
	GPIOB->MODER   |=    2U<<(2*I2C1_SCL) | 2U<<(2*I2C1_SDA);    // Alternative Function
 80001fc:	4b15      	ldr	r3, [pc, #84]	@ (8000254 <I2C_GPIO_init+0x74>)
 80001fe:	681b      	ldr	r3, [r3, #0]
 8000200:	4a14      	ldr	r2, [pc, #80]	@ (8000254 <I2C_GPIO_init+0x74>)
 8000202:	f443 2320 	orr.w	r3, r3, #655360	@ 0xa0000
 8000206:	6013      	str	r3, [r2, #0]


	//GPIOB->AFR[0]  |= 0x44000000;   // Alternative Function 4 = I2C1
	GPIOB->AFR[1]  |= 4U<<(4*(I2C1_SCL-8));   // Alternative Function 4 = I2C1
 8000208:	4b12      	ldr	r3, [pc, #72]	@ (8000254 <I2C_GPIO_init+0x74>)
 800020a:	6a5b      	ldr	r3, [r3, #36]	@ 0x24
 800020c:	4a11      	ldr	r2, [pc, #68]	@ (8000254 <I2C_GPIO_init+0x74>)
 800020e:	f043 0304 	orr.w	r3, r3, #4
 8000212:	6253      	str	r3, [r2, #36]	@ 0x24
	GPIOB->AFR[1]  |= 4U<<(4*(I2C1_SDA-8));   // Alternative Function 4 = I2C1
 8000214:	4b0f      	ldr	r3, [pc, #60]	@ (8000254 <I2C_GPIO_init+0x74>)
 8000216:	6a5b      	ldr	r3, [r3, #36]	@ 0x24
 8000218:	4a0e      	ldr	r2, [pc, #56]	@ (8000254 <I2C_GPIO_init+0x74>)
 800021a:	f043 0340 	orr.w	r3, r3, #64	@ 0x40
 800021e:	6253      	str	r3, [r2, #36]	@ 0x24

	// GPIO Speed: Low speed (00), Medium speed (01), Fast speed (10), High speed (11)
	GPIOB->OSPEEDR |=    3U<<(2*I2C1_SCL) | 3U<<(2*I2C1_SDA);    // High Speed
 8000220:	4b0c      	ldr	r3, [pc, #48]	@ (8000254 <I2C_GPIO_init+0x74>)
 8000222:	689b      	ldr	r3, [r3, #8]
 8000224:	4a0b      	ldr	r2, [pc, #44]	@ (8000254 <I2C_GPIO_init+0x74>)
 8000226:	f443 2370 	orr.w	r3, r3, #983040	@ 0xf0000
 800022a:	6093      	str	r3, [r2, #8]

	// GPIO Push-Pull: No pull-up, pull-down (00), Pull-up (01), Pull-down (10), Reserved (11)
	GPIOB->PUPDR   &= ~( 3U<<(2*I2C1_SCL) | 3U<<(2*I2C1_SDA) );
 800022c:	4b09      	ldr	r3, [pc, #36]	@ (8000254 <I2C_GPIO_init+0x74>)
 800022e:	68db      	ldr	r3, [r3, #12]
 8000230:	4a08      	ldr	r2, [pc, #32]	@ (8000254 <I2C_GPIO_init+0x74>)
 8000232:	f423 2370 	bic.w	r3, r3, #983040	@ 0xf0000
 8000236:	60d3      	str	r3, [r2, #12]
	//GPIOB->PUPDR   |=    1U<<(2*I2C1_SCL) | 1U<<(2*I2C1_SDA) ;   // Pull-up

	// GPIO Output Type: Output push-pull (0, reset), Output open drain (1)
	GPIOB->OTYPER  |= 1U<<I2C1_SCL | 1U<<I2C1_SDA;  // Open Drain
 8000238:	4b06      	ldr	r3, [pc, #24]	@ (8000254 <I2C_GPIO_init+0x74>)
 800023a:	685b      	ldr	r3, [r3, #4]
 800023c:	4a05      	ldr	r2, [pc, #20]	@ (8000254 <I2C_GPIO_init+0x74>)
 800023e:	f443 7340 	orr.w	r3, r3, #768	@ 0x300
 8000242:	6053      	str	r3, [r2, #4]
}
 8000244:	bf00      	nop
 8000246:	46bd      	mov	sp, r7
 8000248:	f85d 7b04 	ldr.w	r7, [sp], #4
 800024c:	4770      	bx	lr
 800024e:	bf00      	nop
 8000250:	40021000 	.word	0x40021000
 8000254:	48000400 	.word	0x48000400

08000258 <I2C_Initialization>:

//===============================================================================
//                          I2C Initialization
//===============================================================================
void I2C_Initialization(I2C_TypeDef * I2Cx, uint32_t TimingConfig)
{
 8000258:	b480      	push	{r7}
 800025a:	b083      	sub	sp, #12
 800025c:	af00      	add	r7, sp, #0
 800025e:	6078      	str	r0, [r7, #4]
 8000260:	6039      	str	r1, [r7, #0]

	// Enable the clock of I2C
	if (I2Cx == I2C1) {
 8000262:	687b      	ldr	r3, [r7, #4]
 8000264:	4a31      	ldr	r2, [pc, #196]	@ (800032c <I2C_Initialization+0xd4>)
 8000266:	4293      	cmp	r3, r2
 8000268:	d116      	bne.n	8000298 <I2C_Initialization+0x40>
		RCC->APB1ENR1	|= RCC_APB1ENR1_I2C1EN;		  // I2C2 clock enable
 800026a:	4b31      	ldr	r3, [pc, #196]	@ (8000330 <I2C_Initialization+0xd8>)
 800026c:	6d9b      	ldr	r3, [r3, #88]	@ 0x58
 800026e:	4a30      	ldr	r2, [pc, #192]	@ (8000330 <I2C_Initialization+0xd8>)
 8000270:	f443 1300 	orr.w	r3, r3, #2097152	@ 0x200000
 8000274:	6593      	str	r3, [r2, #88]	@ 0x58
		RCC->CCIPR &= ~RCC_CCIPR_I2C1SEL;         // 00 = PCLK, 01 = SYSCLK, 10 = HSI16, 11 = Reserved
 8000276:	4b2e      	ldr	r3, [pc, #184]	@ (8000330 <I2C_Initialization+0xd8>)
 8000278:	f8d3 3088 	ldr.w	r3, [r3, #136]	@ 0x88
 800027c:	4a2c      	ldr	r2, [pc, #176]	@ (8000330 <I2C_Initialization+0xd8>)
 800027e:	f423 5340 	bic.w	r3, r3, #12288	@ 0x3000
 8000282:	f8c2 3088 	str.w	r3, [r2, #136]	@ 0x88
		RCC->CCIPR |=  RCC_CCIPR_I2C1SEL_0;       // Set I2C1 clock source as SYSCLK
 8000286:	4b2a      	ldr	r3, [pc, #168]	@ (8000330 <I2C_Initialization+0xd8>)
 8000288:	f8d3 3088 	ldr.w	r3, [r3, #136]	@ 0x88
 800028c:	4a28      	ldr	r2, [pc, #160]	@ (8000330 <I2C_Initialization+0xd8>)
 800028e:	f443 5380 	orr.w	r3, r3, #4096	@ 0x1000
 8000292:	f8c2 3088 	str.w	r3, [r2, #136]	@ 0x88
 8000296:	e034      	b.n	8000302 <I2C_Initialization+0xaa>
	} else if (I2Cx == I2C2) {
 8000298:	687b      	ldr	r3, [r7, #4]
 800029a:	4a26      	ldr	r2, [pc, #152]	@ (8000334 <I2C_Initialization+0xdc>)
 800029c:	4293      	cmp	r3, r2
 800029e:	d116      	bne.n	80002ce <I2C_Initialization+0x76>
		RCC->APB1ENR1	|= RCC_APB1ENR1_I2C2EN;	    // I2C3 clock enable
 80002a0:	4b23      	ldr	r3, [pc, #140]	@ (8000330 <I2C_Initialization+0xd8>)
 80002a2:	6d9b      	ldr	r3, [r3, #88]	@ 0x58
 80002a4:	4a22      	ldr	r2, [pc, #136]	@ (8000330 <I2C_Initialization+0xd8>)
 80002a6:	f443 0380 	orr.w	r3, r3, #4194304	@ 0x400000
 80002aa:	6593      	str	r3, [r2, #88]	@ 0x58
		RCC->CCIPR &= ~RCC_CCIPR_I2C2SEL;         // 00 = PCLK, 01 = SYSCLK, 10 = HSI16, 11 = Reserved
 80002ac:	4b20      	ldr	r3, [pc, #128]	@ (8000330 <I2C_Initialization+0xd8>)
 80002ae:	f8d3 3088 	ldr.w	r3, [r3, #136]	@ 0x88
 80002b2:	4a1f      	ldr	r2, [pc, #124]	@ (8000330 <I2C_Initialization+0xd8>)
 80002b4:	f423 4340 	bic.w	r3, r3, #49152	@ 0xc000
 80002b8:	f8c2 3088 	str.w	r3, [r2, #136]	@ 0x88
		RCC->CCIPR |=  RCC_CCIPR_I2C2SEL_0;       // Set I2C2 clock source as SYSCLK
 80002bc:	4b1c      	ldr	r3, [pc, #112]	@ (8000330 <I2C_Initialization+0xd8>)
 80002be:	f8d3 3088 	ldr.w	r3, [r3, #136]	@ 0x88
 80002c2:	4a1b      	ldr	r2, [pc, #108]	@ (8000330 <I2C_Initialization+0xd8>)
 80002c4:	f443 4380 	orr.w	r3, r3, #16384	@ 0x4000
 80002c8:	f8c2 3088 	str.w	r3, [r2, #136]	@ 0x88
 80002cc:	e019      	b.n	8000302 <I2C_Initialization+0xaa>
	} else if (I2Cx == I2C3) {
 80002ce:	687b      	ldr	r3, [r7, #4]
 80002d0:	4a19      	ldr	r2, [pc, #100]	@ (8000338 <I2C_Initialization+0xe0>)
 80002d2:	4293      	cmp	r3, r2
 80002d4:	d115      	bne.n	8000302 <I2C_Initialization+0xaa>
		RCC->APB1ENR1	|= RCC_APB1ENR1_I2C3EN;    	// I2C3 clock enable
 80002d6:	4b16      	ldr	r3, [pc, #88]	@ (8000330 <I2C_Initialization+0xd8>)
 80002d8:	6d9b      	ldr	r3, [r3, #88]	@ 0x58
 80002da:	4a15      	ldr	r2, [pc, #84]	@ (8000330 <I2C_Initialization+0xd8>)
 80002dc:	f443 0300 	orr.w	r3, r3, #8388608	@ 0x800000
 80002e0:	6593      	str	r3, [r2, #88]	@ 0x58
		RCC->CCIPR &= ~RCC_CCIPR_I2C3SEL;         // 00 = PCLK, 01 = SYSCLK, 10 = HSI16, 11 = Reserved
 80002e2:	4b13      	ldr	r3, [pc, #76]	@ (8000330 <I2C_Initialization+0xd8>)
 80002e4:	f8d3 3088 	ldr.w	r3, [r3, #136]	@ 0x88
 80002e8:	4a11      	ldr	r2, [pc, #68]	@ (8000330 <I2C_Initialization+0xd8>)
 80002ea:	f423 3340 	bic.w	r3, r3, #196608	@ 0x30000
 80002ee:	f8c2 3088 	str.w	r3, [r2, #136]	@ 0x88
		RCC->CCIPR |=  RCC_CCIPR_I2C3SEL_0;       // Set I2C3 clock source as SYSCLK
 80002f2:	4b0f      	ldr	r3, [pc, #60]	@ (8000330 <I2C_Initialization+0xd8>)
 80002f4:	f8d3 3088 	ldr.w	r3, [r3, #136]	@ 0x88
 80002f8:	4a0d      	ldr	r2, [pc, #52]	@ (8000330 <I2C_Initialization+0xd8>)
 80002fa:	f443 3380 	orr.w	r3, r3, #65536	@ 0x10000
 80002fe:	f8c2 3088 	str.w	r3, [r2, #136]	@ 0x88
	}

  /*---------------------------- I2Cx CR1 Configuration ----------------------*/
	// When the I2C is disabled (PE=0), the I2C performs a software reset.
	I2Cx->CR1 &= ~I2C_CR1_PE;       // Diable I2C
 8000302:	687b      	ldr	r3, [r7, #4]
 8000304:	681b      	ldr	r3, [r3, #0]
 8000306:	f023 0201 	bic.w	r2, r3, #1
 800030a:	687b      	ldr	r3, [r7, #4]
 800030c:	601a      	str	r2, [r3, #0]


	/*---------------------------- I2Cx TIMINGR Configuration ------------------*/
	I2Cx->TIMINGR = TimingConfig;
 800030e:	687b      	ldr	r3, [r7, #4]
 8000310:	683a      	ldr	r2, [r7, #0]
 8000312:	611a      	str	r2, [r3, #16]

	I2Cx->CR1 |= I2C_CR1_PE;								// Enable I2C1
 8000314:	687b      	ldr	r3, [r7, #4]
 8000316:	681b      	ldr	r3, [r3, #0]
 8000318:	f043 0201 	orr.w	r2, r3, #1
 800031c:	687b      	ldr	r3, [r7, #4]
 800031e:	601a      	str	r2, [r3, #0]
}
 8000320:	bf00      	nop
 8000322:	370c      	adds	r7, #12
 8000324:	46bd      	mov	sp, r7
 8000326:	f85d 7b04 	ldr.w	r7, [sp], #4
 800032a:	4770      	bx	lr
 800032c:	40005400 	.word	0x40005400
 8000330:	40021000 	.word	0x40021000
 8000334:	40005800 	.word	0x40005800
 8000338:	40005c00 	.word	0x40005c00

0800033c <I2C_Start>:


int8_t I2C_Start(I2C_TypeDef * I2Cx, uint32_t DevAddress, uint8_t Size, uint8_t Direction)
{
 800033c:	b480      	push	{r7}
 800033e:	b085      	sub	sp, #20
 8000340:	af00      	add	r7, sp, #0
 8000342:	60f8      	str	r0, [r7, #12]
 8000344:	60b9      	str	r1, [r7, #8]
 8000346:	4611      	mov	r1, r2
 8000348:	461a      	mov	r2, r3
 800034a:	460b      	mov	r3, r1
 800034c:	71fb      	strb	r3, [r7, #7]
 800034e:	4613      	mov	r3, r2
 8000350:	71bb      	strb	r3, [r7, #6]

	// Direction = 0: Master requests a write transfer
	// Direction = 1: Master requests a read transfer

	I2Cx->CR2 &= ~I2C_CR2_SADD;
 8000352:	68fb      	ldr	r3, [r7, #12]
 8000354:	685b      	ldr	r3, [r3, #4]
 8000356:	f423 737f 	bic.w	r3, r3, #1020	@ 0x3fc
 800035a:	f023 0303 	bic.w	r3, r3, #3
 800035e:	68fa      	ldr	r2, [r7, #12]
 8000360:	6053      	str	r3, [r2, #4]
	I2Cx->CR2 &= ~I2C_CR2_NBYTES;
 8000362:	68fb      	ldr	r3, [r7, #12]
 8000364:	685b      	ldr	r3, [r3, #4]
 8000366:	f423 027f 	bic.w	r2, r3, #16711680	@ 0xff0000
 800036a:	68fb      	ldr	r3, [r7, #12]
 800036c:	605a      	str	r2, [r3, #4]
	I2Cx->CR2 &= ~I2C_CR2_RELOAD;
 800036e:	68fb      	ldr	r3, [r7, #12]
 8000370:	685b      	ldr	r3, [r3, #4]
 8000372:	f023 7280 	bic.w	r2, r3, #16777216	@ 0x1000000
 8000376:	68fb      	ldr	r3, [r7, #12]
 8000378:	605a      	str	r2, [r3, #4]
	I2Cx->CR2 &= ~I2C_CR2_ADD10;
 800037a:	68fb      	ldr	r3, [r7, #12]
 800037c:	685b      	ldr	r3, [r3, #4]
 800037e:	f423 6200 	bic.w	r2, r3, #2048	@ 0x800
 8000382:	68fb      	ldr	r3, [r7, #12]
 8000384:	605a      	str	r2, [r3, #4]
	I2Cx->CR2 |= I2C_CR2_AUTOEND;
 8000386:	68fb      	ldr	r3, [r7, #12]
 8000388:	685b      	ldr	r3, [r3, #4]
 800038a:	f043 7200 	orr.w	r2, r3, #33554432	@ 0x2000000
 800038e:	68fb      	ldr	r3, [r7, #12]
 8000390:	605a      	str	r2, [r3, #4]
	I2Cx->CR2 &= ~I2C_CR2_START;
 8000392:	68fb      	ldr	r3, [r7, #12]
 8000394:	685b      	ldr	r3, [r3, #4]
 8000396:	f423 5200 	bic.w	r2, r3, #8192	@ 0x2000
 800039a:	68fb      	ldr	r3, [r7, #12]
 800039c:	605a      	str	r2, [r3, #4]
	I2Cx->CR2 &= ~I2C_CR2_STOP;
 800039e:	68fb      	ldr	r3, [r7, #12]
 80003a0:	685b      	ldr	r3, [r3, #4]
 80003a2:	f423 4280 	bic.w	r2, r3, #16384	@ 0x4000
 80003a6:	68fb      	ldr	r3, [r7, #12]
 80003a8:	605a      	str	r2, [r3, #4]

	if (Direction == READ_FROM_PERIPHERAL)
 80003aa:	79bb      	ldrb	r3, [r7, #6]
 80003ac:	2b01      	cmp	r3, #1
 80003ae:	d105      	bne.n	80003bc <I2C_Start+0x80>
		I2Cx->CR2 |= I2C_CR2_RD_WRN;  // Read from Peripheral
 80003b0:	68fb      	ldr	r3, [r7, #12]
 80003b2:	685b      	ldr	r3, [r3, #4]
 80003b4:	f443 6280 	orr.w	r2, r3, #1024	@ 0x400
 80003b8:	68fb      	ldr	r3, [r7, #12]
 80003ba:	605a      	str	r2, [r3, #4]
	if (Direction == WRITE_TO_PERIPHERAL)
 80003bc:	79bb      	ldrb	r3, [r7, #6]
 80003be:	2b00      	cmp	r3, #0
 80003c0:	d105      	bne.n	80003ce <I2C_Start+0x92>
		I2Cx->CR2 &= ~I2C_CR2_RD_WRN; // Write to Peripheral
 80003c2:	68fb      	ldr	r3, [r7, #12]
 80003c4:	685b      	ldr	r3, [r3, #4]
 80003c6:	f423 6280 	bic.w	r2, r3, #1024	@ 0x400
 80003ca:	68fb      	ldr	r3, [r7, #12]
 80003cc:	605a      	str	r2, [r3, #4]

  I2Cx->CR2 |= DevAddress<<1 & I2C_CR2_SADD;
 80003ce:	68fb      	ldr	r3, [r7, #12]
 80003d0:	685a      	ldr	r2, [r3, #4]
 80003d2:	68bb      	ldr	r3, [r7, #8]
 80003d4:	005b      	lsls	r3, r3, #1
 80003d6:	f3c3 0309 	ubfx	r3, r3, #0, #10
 80003da:	431a      	orrs	r2, r3
 80003dc:	68fb      	ldr	r3, [r7, #12]
 80003de:	605a      	str	r2, [r3, #4]
	I2Cx->CR2 |= ((uint32_t)Size << 16 ) & I2C_CR2_NBYTES;
 80003e0:	68fb      	ldr	r3, [r7, #12]
 80003e2:	685a      	ldr	r2, [r3, #4]
 80003e4:	79fb      	ldrb	r3, [r7, #7]
 80003e6:	041b      	lsls	r3, r3, #16
 80003e8:	f403 037f 	and.w	r3, r3, #16711680	@ 0xff0000
 80003ec:	431a      	orrs	r2, r3
 80003ee:	68fb      	ldr	r3, [r7, #12]
 80003f0:	605a      	str	r2, [r3, #4]

	I2Cx->CR2 |= I2C_CR2_START;
 80003f2:	68fb      	ldr	r3, [r7, #12]
 80003f4:	685b      	ldr	r3, [r3, #4]
 80003f6:	f443 5200 	orr.w	r2, r3, #8192	@ 0x2000
 80003fa:	68fb      	ldr	r3, [r7, #12]
 80003fc:	605a      	str	r2, [r3, #4]


	if ( (I2Cx->ISR & I2C_ISR_NACKF) == I2C_ISR_NACKF )
 80003fe:	68fb      	ldr	r3, [r7, #12]
 8000400:	699b      	ldr	r3, [r3, #24]
 8000402:	f003 0310 	and.w	r3, r3, #16
 8000406:	2b10      	cmp	r3, #16
 8000408:	d102      	bne.n	8000410 <I2C_Start+0xd4>
		return -1;  // NACK was received; a communication error may have ocurred
 800040a:	f04f 33ff 	mov.w	r3, #4294967295	@ 0xffffffff
 800040e:	e000      	b.n	8000412 <I2C_Start+0xd6>

   	return 0;  // Success
 8000410:	2300      	movs	r3, #0
}
 8000412:	4618      	mov	r0, r3
 8000414:	3714      	adds	r7, #20
 8000416:	46bd      	mov	sp, r7
 8000418:	f85d 7b04 	ldr.w	r7, [sp], #4
 800041c:	4770      	bx	lr

0800041e <I2C_WaitLineIdle>:

//===============================================================================
//                           Wait for the bus is ready
//===============================================================================
void I2C_WaitLineIdle(I2C_TypeDef * I2Cx)
{
 800041e:	b480      	push	{r7}
 8000420:	b083      	sub	sp, #12
 8000422:	af00      	add	r7, sp, #0
 8000424:	6078      	str	r0, [r7, #4]
	// Wait until I2C bus is ready
	while( (I2Cx->ISR & I2C_ISR_BUSY) == I2C_ISR_BUSY );	// If busy, wait
 8000426:	bf00      	nop
 8000428:	687b      	ldr	r3, [r7, #4]
 800042a:	699b      	ldr	r3, [r3, #24]
 800042c:	f403 4300 	and.w	r3, r3, #32768	@ 0x8000
 8000430:	f5b3 4f00 	cmp.w	r3, #32768	@ 0x8000
 8000434:	d0f8      	beq.n	8000428 <I2C_WaitLineIdle+0xa>
}
 8000436:	bf00      	nop
 8000438:	bf00      	nop
 800043a:	370c      	adds	r7, #12
 800043c:	46bd      	mov	sp, r7
 800043e:	f85d 7b04 	ldr.w	r7, [sp], #4
 8000442:	4770      	bx	lr

08000444 <I2C_SendData>:


int8_t I2C_SendData(I2C_TypeDef * I2Cx, uint8_t DeviceAddress, uint8_t *pData, uint8_t Size)
{
 8000444:	b580      	push	{r7, lr}
 8000446:	b086      	sub	sp, #24
 8000448:	af00      	add	r7, sp, #0
 800044a:	60f8      	str	r0, [r7, #12]
 800044c:	607a      	str	r2, [r7, #4]
 800044e:	461a      	mov	r2, r3
 8000450:	460b      	mov	r3, r1
 8000452:	72fb      	strb	r3, [r7, #11]
 8000454:	4613      	mov	r3, r2
 8000456:	72bb      	strb	r3, [r7, #10]
	int i;

	if (Size <= 0 || pData == NULL)
 8000458:	7abb      	ldrb	r3, [r7, #10]
 800045a:	2b00      	cmp	r3, #0
 800045c:	d002      	beq.n	8000464 <I2C_SendData+0x20>
 800045e:	687b      	ldr	r3, [r7, #4]
 8000460:	2b00      	cmp	r3, #0
 8000462:	d102      	bne.n	800046a <I2C_SendData+0x26>
		return -1;
 8000464:	f04f 33ff 	mov.w	r3, #4294967295	@ 0xffffffff
 8000468:	e030      	b.n	80004cc <I2C_SendData+0x88>

	I2C_WaitLineIdle(I2Cx);
 800046a:	68f8      	ldr	r0, [r7, #12]
 800046c:	f7ff ffd7 	bl	800041e <I2C_WaitLineIdle>

	if (I2C_Start(I2Cx, DeviceAddress, Size, WRITE_TO_PERIPHERAL) < 0 )
 8000470:	7af9      	ldrb	r1, [r7, #11]
 8000472:	7aba      	ldrb	r2, [r7, #10]
 8000474:	2300      	movs	r3, #0
 8000476:	68f8      	ldr	r0, [r7, #12]
 8000478:	f7ff ff60 	bl	800033c <I2C_Start>
 800047c:	4603      	mov	r3, r0
 800047e:	2b00      	cmp	r3, #0
 8000480:	da02      	bge.n	8000488 <I2C_SendData+0x44>
		return -1; // The I2C Start process was not successful
 8000482:	f04f 33ff 	mov.w	r3, #4294967295	@ 0xffffffff
 8000486:	e021      	b.n	80004cc <I2C_SendData+0x88>

	for (i = 0; i < Size; i++)
 8000488:	2300      	movs	r3, #0
 800048a:	617b      	str	r3, [r7, #20]
 800048c:	e010      	b.n	80004b0 <I2C_SendData+0x6c>
	{
		// TXIS bit is set by hardware when the I2C_TXDR register is empty and the data to be
		// transmitted must be written in the I2C_TXDR register. It is cleared when the next data to be
		// sent is written in the I2C_TXDR register.
		// The TXIS flag is not set when a NACK is received.
		while((I2Cx->ISR & I2C_ISR_TXIS) == 0 );
 800048e:	bf00      	nop
 8000490:	68fb      	ldr	r3, [r7, #12]
 8000492:	699b      	ldr	r3, [r3, #24]
 8000494:	f003 0302 	and.w	r3, r3, #2
 8000498:	2b00      	cmp	r3, #0
 800049a:	d0f9      	beq.n	8000490 <I2C_SendData+0x4c>
		I2Cx->TXDR = pData[i] & I2C_TXDR_TXDATA;  // TXE is cleared by writing to the TXDR register.
 800049c:	697b      	ldr	r3, [r7, #20]
 800049e:	687a      	ldr	r2, [r7, #4]
 80004a0:	4413      	add	r3, r2
 80004a2:	781b      	ldrb	r3, [r3, #0]
 80004a4:	461a      	mov	r2, r3
 80004a6:	68fb      	ldr	r3, [r7, #12]
 80004a8:	629a      	str	r2, [r3, #40]	@ 0x28
	for (i = 0; i < Size; i++)
 80004aa:	697b      	ldr	r3, [r7, #20]
 80004ac:	3301      	adds	r3, #1
 80004ae:	617b      	str	r3, [r7, #20]
 80004b0:	7abb      	ldrb	r3, [r7, #10]
 80004b2:	697a      	ldr	r2, [r7, #20]
 80004b4:	429a      	cmp	r2, r3
 80004b6:	dbea      	blt.n	800048e <I2C_SendData+0x4a>
	}

	// Wait until TC flag is set
	//while((I2Cx->ISR & I2C_ISR_TC) == 0 && (I2Cx->ISR & I2C_ISR_NACKF) == 0);

	if ( (I2Cx->ISR & I2C_ISR_NACKF) != 0 )
 80004b8:	68fb      	ldr	r3, [r7, #12]
 80004ba:	699b      	ldr	r3, [r3, #24]
 80004bc:	f003 0310 	and.w	r3, r3, #16
 80004c0:	2b00      	cmp	r3, #0
 80004c2:	d002      	beq.n	80004ca <I2C_SendData+0x86>
		return -1;
 80004c4:	f04f 33ff 	mov.w	r3, #4294967295	@ 0xffffffff
 80004c8:	e000      	b.n	80004cc <I2C_SendData+0x88>

	return 0;
 80004ca:	2300      	movs	r3, #0
}
 80004cc:	4618      	mov	r0, r3
 80004ce:	3718      	adds	r7, #24
 80004d0:	46bd      	mov	sp, r7
 80004d2:	bd80      	pop	{r7, pc}

080004d4 <VEML7700_WriteReg16>:
 * Byte 1: low byte
 * Byte 2: high byte
 */

int8_t VEML7700_WriteReg16(uint8_t reg, uint16_t value)
{
 80004d4:	b580      	push	{r7, lr}
 80004d6:	b084      	sub	sp, #16
 80004d8:	af00      	add	r7, sp, #0
 80004da:	4603      	mov	r3, r0
 80004dc:	460a      	mov	r2, r1
 80004de:	71fb      	strb	r3, [r7, #7]
 80004e0:	4613      	mov	r3, r2
 80004e2:	80bb      	strh	r3, [r7, #4]
    uint8_t txData[3];

    txData[0] = reg;
 80004e4:	79fb      	ldrb	r3, [r7, #7]
 80004e6:	733b      	strb	r3, [r7, #12]
    txData[1] = value & 0xFF;          // low byte first
 80004e8:	88bb      	ldrh	r3, [r7, #4]
 80004ea:	b2db      	uxtb	r3, r3
 80004ec:	737b      	strb	r3, [r7, #13]
    txData[2] = (value >> 8) & 0xFF;   // high byte second
 80004ee:	88bb      	ldrh	r3, [r7, #4]
 80004f0:	0a1b      	lsrs	r3, r3, #8
 80004f2:	b29b      	uxth	r3, r3
 80004f4:	b2db      	uxtb	r3, r3
 80004f6:	73bb      	strb	r3, [r7, #14]

    // Clear stale I2C flags before transaction
    I2C1->ICR |= I2C_ICR_NACKCF | I2C_ICR_STOPCF;
 80004f8:	4b08      	ldr	r3, [pc, #32]	@ (800051c <VEML7700_WriteReg16+0x48>)
 80004fa:	69db      	ldr	r3, [r3, #28]
 80004fc:	4a07      	ldr	r2, [pc, #28]	@ (800051c <VEML7700_WriteReg16+0x48>)
 80004fe:	f043 0330 	orr.w	r3, r3, #48	@ 0x30
 8000502:	61d3      	str	r3, [r2, #28]

    return I2C_SendData(I2C1, VEML7700_ADDR_7BIT, txData, 3);
 8000504:	f107 020c 	add.w	r2, r7, #12
 8000508:	2303      	movs	r3, #3
 800050a:	2110      	movs	r1, #16
 800050c:	4803      	ldr	r0, [pc, #12]	@ (800051c <VEML7700_WriteReg16+0x48>)
 800050e:	f7ff ff99 	bl	8000444 <I2C_SendData>
 8000512:	4603      	mov	r3, r0
}
 8000514:	4618      	mov	r0, r3
 8000516:	3710      	adds	r7, #16
 8000518:	46bd      	mov	sp, r7
 800051a:	bd80      	pop	{r7, pc}
 800051c:	40005400 	.word	0x40005400

08000520 <VEML7700_ReadReg16>:
/*
 * Read 16-bit value from a VEML7700 register.
 * VEML7700 returns low byte first.
 */
uint16_t VEML7700_ReadReg16(uint8_t reg)
{
 8000520:	b580      	push	{r7, lr}
 8000522:	b084      	sub	sp, #16
 8000524:	af00      	add	r7, sp, #0
 8000526:	4603      	mov	r3, r0
 8000528:	71fb      	strb	r3, [r7, #7]
    uint8_t rxData[2] = {0, 0};
 800052a:	2300      	movs	r3, #0
 800052c:	813b      	strh	r3, [r7, #8]
    uint16_t value = 0;
 800052e:	2300      	movs	r3, #0
 8000530:	817b      	strh	r3, [r7, #10]

    // Clear stale I2C flags
    I2C1->ICR |= I2C_ICR_NACKCF | I2C_ICR_STOPCF;
 8000532:	4b52      	ldr	r3, [pc, #328]	@ (800067c <VEML7700_ReadReg16+0x15c>)
 8000534:	69db      	ldr	r3, [r3, #28]
 8000536:	4a51      	ldr	r2, [pc, #324]	@ (800067c <VEML7700_ReadReg16+0x15c>)
 8000538:	f043 0330 	orr.w	r3, r3, #48	@ 0x30
 800053c:	61d3      	str	r3, [r2, #28]

    I2C_WaitLineIdle(I2C1);
 800053e:	484f      	ldr	r0, [pc, #316]	@ (800067c <VEML7700_ReadReg16+0x15c>)
 8000540:	f7ff ff6d 	bl	800041e <I2C_WaitLineIdle>
    /*
     * Tell the sensor which register to read without generating STOP.
     * The VEML7700 read transaction needs a repeated START between the
     * register command byte and the 2-byte read phase.
     */
    I2C1->CR2 &= ~(I2C_CR2_SADD | I2C_CR2_NBYTES | I2C_CR2_RELOAD |
 8000544:	4b4d      	ldr	r3, [pc, #308]	@ (800067c <VEML7700_ReadReg16+0x15c>)
 8000546:	685a      	ldr	r2, [r3, #4]
 8000548:	494c      	ldr	r1, [pc, #304]	@ (800067c <VEML7700_ReadReg16+0x15c>)
 800054a:	4b4d      	ldr	r3, [pc, #308]	@ (8000680 <VEML7700_ReadReg16+0x160>)
 800054c:	4013      	ands	r3, r2
 800054e:	604b      	str	r3, [r1, #4]
                   I2C_CR2_AUTOEND | I2C_CR2_RD_WRN | I2C_CR2_ADD10 |
                   I2C_CR2_START | I2C_CR2_STOP);
    I2C1->CR2 |= ((uint32_t)VEML7700_ADDR_7BIT << 1) & I2C_CR2_SADD;
 8000550:	4b4a      	ldr	r3, [pc, #296]	@ (800067c <VEML7700_ReadReg16+0x15c>)
 8000552:	685b      	ldr	r3, [r3, #4]
 8000554:	4a49      	ldr	r2, [pc, #292]	@ (800067c <VEML7700_ReadReg16+0x15c>)
 8000556:	f043 0320 	orr.w	r3, r3, #32
 800055a:	6053      	str	r3, [r2, #4]
    I2C1->CR2 |= (1U << I2C_CR2_NBYTES_Pos) & I2C_CR2_NBYTES;
 800055c:	4b47      	ldr	r3, [pc, #284]	@ (800067c <VEML7700_ReadReg16+0x15c>)
 800055e:	685b      	ldr	r3, [r3, #4]
 8000560:	4a46      	ldr	r2, [pc, #280]	@ (800067c <VEML7700_ReadReg16+0x15c>)
 8000562:	f443 3380 	orr.w	r3, r3, #65536	@ 0x10000
 8000566:	6053      	str	r3, [r2, #4]
    I2C1->CR2 |= I2C_CR2_START;
 8000568:	4b44      	ldr	r3, [pc, #272]	@ (800067c <VEML7700_ReadReg16+0x15c>)
 800056a:	685b      	ldr	r3, [r3, #4]
 800056c:	4a43      	ldr	r2, [pc, #268]	@ (800067c <VEML7700_ReadReg16+0x15c>)
 800056e:	f443 5300 	orr.w	r3, r3, #8192	@ 0x2000
 8000572:	6053      	str	r3, [r2, #4]

    while ((I2C1->ISR & (I2C_ISR_TXIS | I2C_ISR_NACKF)) == 0);
 8000574:	bf00      	nop
 8000576:	4b41      	ldr	r3, [pc, #260]	@ (800067c <VEML7700_ReadReg16+0x15c>)
 8000578:	699b      	ldr	r3, [r3, #24]
 800057a:	f003 0312 	and.w	r3, r3, #18
 800057e:	2b00      	cmp	r3, #0
 8000580:	d0f9      	beq.n	8000576 <VEML7700_ReadReg16+0x56>
    if ((I2C1->ISR & I2C_ISR_NACKF) != 0) {
 8000582:	4b3e      	ldr	r3, [pc, #248]	@ (800067c <VEML7700_ReadReg16+0x15c>)
 8000584:	699b      	ldr	r3, [r3, #24]
 8000586:	f003 0310 	and.w	r3, r3, #16
 800058a:	2b00      	cmp	r3, #0
 800058c:	d002      	beq.n	8000594 <VEML7700_ReadReg16+0x74>
        return 0xFFFF;   // error marker
 800058e:	f64f 73ff 	movw	r3, #65535	@ 0xffff
 8000592:	e06e      	b.n	8000672 <VEML7700_ReadReg16+0x152>
    }
    I2C1->TXDR = reg & I2C_TXDR_TXDATA;
 8000594:	4a39      	ldr	r2, [pc, #228]	@ (800067c <VEML7700_ReadReg16+0x15c>)
 8000596:	79fb      	ldrb	r3, [r7, #7]
 8000598:	6293      	str	r3, [r2, #40]	@ 0x28

    while ((I2C1->ISR & (I2C_ISR_TC | I2C_ISR_NACKF)) == 0);
 800059a:	bf00      	nop
 800059c:	4b37      	ldr	r3, [pc, #220]	@ (800067c <VEML7700_ReadReg16+0x15c>)
 800059e:	699b      	ldr	r3, [r3, #24]
 80005a0:	f003 0350 	and.w	r3, r3, #80	@ 0x50
 80005a4:	2b00      	cmp	r3, #0
 80005a6:	d0f9      	beq.n	800059c <VEML7700_ReadReg16+0x7c>
    if ((I2C1->ISR & I2C_ISR_NACKF) != 0) {
 80005a8:	4b34      	ldr	r3, [pc, #208]	@ (800067c <VEML7700_ReadReg16+0x15c>)
 80005aa:	699b      	ldr	r3, [r3, #24]
 80005ac:	f003 0310 	and.w	r3, r3, #16
 80005b0:	2b00      	cmp	r3, #0
 80005b2:	d002      	beq.n	80005ba <VEML7700_ReadReg16+0x9a>
        return 0xFFFF;   // error marker
 80005b4:	f64f 73ff 	movw	r3, #65535	@ 0xffff
 80005b8:	e05b      	b.n	8000672 <VEML7700_ReadReg16+0x152>
    }

    I2C1->CR2 &= ~(I2C_CR2_SADD | I2C_CR2_NBYTES | I2C_CR2_RELOAD |
 80005ba:	4b30      	ldr	r3, [pc, #192]	@ (800067c <VEML7700_ReadReg16+0x15c>)
 80005bc:	685a      	ldr	r2, [r3, #4]
 80005be:	492f      	ldr	r1, [pc, #188]	@ (800067c <VEML7700_ReadReg16+0x15c>)
 80005c0:	4b2f      	ldr	r3, [pc, #188]	@ (8000680 <VEML7700_ReadReg16+0x160>)
 80005c2:	4013      	ands	r3, r2
 80005c4:	604b      	str	r3, [r1, #4]
                   I2C_CR2_AUTOEND | I2C_CR2_RD_WRN | I2C_CR2_ADD10 |
                   I2C_CR2_START | I2C_CR2_STOP);
    I2C1->CR2 |= ((uint32_t)VEML7700_ADDR_7BIT << 1) & I2C_CR2_SADD;
 80005c6:	4b2d      	ldr	r3, [pc, #180]	@ (800067c <VEML7700_ReadReg16+0x15c>)
 80005c8:	685b      	ldr	r3, [r3, #4]
 80005ca:	4a2c      	ldr	r2, [pc, #176]	@ (800067c <VEML7700_ReadReg16+0x15c>)
 80005cc:	f043 0320 	orr.w	r3, r3, #32
 80005d0:	6053      	str	r3, [r2, #4]
    I2C1->CR2 |= (2U << I2C_CR2_NBYTES_Pos) & I2C_CR2_NBYTES;
 80005d2:	4b2a      	ldr	r3, [pc, #168]	@ (800067c <VEML7700_ReadReg16+0x15c>)
 80005d4:	685b      	ldr	r3, [r3, #4]
 80005d6:	4a29      	ldr	r2, [pc, #164]	@ (800067c <VEML7700_ReadReg16+0x15c>)
 80005d8:	f443 3300 	orr.w	r3, r3, #131072	@ 0x20000
 80005dc:	6053      	str	r3, [r2, #4]
    I2C1->CR2 |= I2C_CR2_RD_WRN | I2C_CR2_AUTOEND | I2C_CR2_START;
 80005de:	4b27      	ldr	r3, [pc, #156]	@ (800067c <VEML7700_ReadReg16+0x15c>)
 80005e0:	685b      	ldr	r3, [r3, #4]
 80005e2:	4a26      	ldr	r2, [pc, #152]	@ (800067c <VEML7700_ReadReg16+0x15c>)
 80005e4:	f043 7300 	orr.w	r3, r3, #33554432	@ 0x2000000
 80005e8:	f443 5310 	orr.w	r3, r3, #9216	@ 0x2400
 80005ec:	6053      	str	r3, [r2, #4]

    for (int i = 0; i < 2; i++) {
 80005ee:	2300      	movs	r3, #0
 80005f0:	60fb      	str	r3, [r7, #12]
 80005f2:	e01b      	b.n	800062c <VEML7700_ReadReg16+0x10c>
        while ((I2C1->ISR & (I2C_ISR_RXNE | I2C_ISR_NACKF)) == 0);
 80005f4:	bf00      	nop
 80005f6:	4b21      	ldr	r3, [pc, #132]	@ (800067c <VEML7700_ReadReg16+0x15c>)
 80005f8:	699b      	ldr	r3, [r3, #24]
 80005fa:	f003 0314 	and.w	r3, r3, #20
 80005fe:	2b00      	cmp	r3, #0
 8000600:	d0f9      	beq.n	80005f6 <VEML7700_ReadReg16+0xd6>
        if ((I2C1->ISR & I2C_ISR_NACKF) != 0) {
 8000602:	4b1e      	ldr	r3, [pc, #120]	@ (800067c <VEML7700_ReadReg16+0x15c>)
 8000604:	699b      	ldr	r3, [r3, #24]
 8000606:	f003 0310 	and.w	r3, r3, #16
 800060a:	2b00      	cmp	r3, #0
 800060c:	d002      	beq.n	8000614 <VEML7700_ReadReg16+0xf4>
            return 0xFFFF;   // error marker
 800060e:	f64f 73ff 	movw	r3, #65535	@ 0xffff
 8000612:	e02e      	b.n	8000672 <VEML7700_ReadReg16+0x152>
        }
        rxData[i] = I2C1->RXDR & I2C_RXDR_RXDATA;
 8000614:	4b19      	ldr	r3, [pc, #100]	@ (800067c <VEML7700_ReadReg16+0x15c>)
 8000616:	6a5b      	ldr	r3, [r3, #36]	@ 0x24
 8000618:	b2d9      	uxtb	r1, r3
 800061a:	f107 0208 	add.w	r2, r7, #8
 800061e:	68fb      	ldr	r3, [r7, #12]
 8000620:	4413      	add	r3, r2
 8000622:	460a      	mov	r2, r1
 8000624:	701a      	strb	r2, [r3, #0]
    for (int i = 0; i < 2; i++) {
 8000626:	68fb      	ldr	r3, [r7, #12]
 8000628:	3301      	adds	r3, #1
 800062a:	60fb      	str	r3, [r7, #12]
 800062c:	68fb      	ldr	r3, [r7, #12]
 800062e:	2b01      	cmp	r3, #1
 8000630:	dde0      	ble.n	80005f4 <VEML7700_ReadReg16+0xd4>
    }

    while ((I2C1->ISR & I2C_ISR_STOPF) == 0);
 8000632:	bf00      	nop
 8000634:	4b11      	ldr	r3, [pc, #68]	@ (800067c <VEML7700_ReadReg16+0x15c>)
 8000636:	699b      	ldr	r3, [r3, #24]
 8000638:	f003 0320 	and.w	r3, r3, #32
 800063c:	2b00      	cmp	r3, #0
 800063e:	d0f9      	beq.n	8000634 <VEML7700_ReadReg16+0x114>
    I2C1->ICR |= I2C_ICR_STOPCF;
 8000640:	4b0e      	ldr	r3, [pc, #56]	@ (800067c <VEML7700_ReadReg16+0x15c>)
 8000642:	69db      	ldr	r3, [r3, #28]
 8000644:	4a0d      	ldr	r2, [pc, #52]	@ (800067c <VEML7700_ReadReg16+0x15c>)
 8000646:	f043 0320 	orr.w	r3, r3, #32
 800064a:	61d3      	str	r3, [r2, #28]

    if ((I2C1->ISR & I2C_ISR_NACKF) != 0) {
 800064c:	4b0b      	ldr	r3, [pc, #44]	@ (800067c <VEML7700_ReadReg16+0x15c>)
 800064e:	699b      	ldr	r3, [r3, #24]
 8000650:	f003 0310 	and.w	r3, r3, #16
 8000654:	2b00      	cmp	r3, #0
 8000656:	d002      	beq.n	800065e <VEML7700_ReadReg16+0x13e>
        return 0xFFFF;   // error marker
 8000658:	f64f 73ff 	movw	r3, #65535	@ 0xffff
 800065c:	e009      	b.n	8000672 <VEML7700_ReadReg16+0x152>
    }

    // VEML7700 sends low byte first
    value = ((uint16_t)rxData[1] << 8) | rxData[0];
 800065e:	7a7b      	ldrb	r3, [r7, #9]
 8000660:	b21b      	sxth	r3, r3
 8000662:	021b      	lsls	r3, r3, #8
 8000664:	b21a      	sxth	r2, r3
 8000666:	7a3b      	ldrb	r3, [r7, #8]
 8000668:	b21b      	sxth	r3, r3
 800066a:	4313      	orrs	r3, r2
 800066c:	b21b      	sxth	r3, r3
 800066e:	817b      	strh	r3, [r7, #10]

    return value;
 8000670:	897b      	ldrh	r3, [r7, #10]
}
 8000672:	4618      	mov	r0, r3
 8000674:	3710      	adds	r7, #16
 8000676:	46bd      	mov	sp, r7
 8000678:	bd80      	pop	{r7, pc}
 800067a:	bf00      	nop
 800067c:	40005400 	.word	0x40005400
 8000680:	fc009000 	.word	0xfc009000

08000684 <configure_LED_pin>:
#define LED_PIN  8

// PA2  <--> LED

void configure_LED_pin()
{
 8000684:	b480      	push	{r7}
 8000686:	af00      	add	r7, sp, #0
	// 1. Enable the clock to GPIO Port A
	RCC->AHB2ENR |= RCC_AHB2ENR_GPIOAEN;
 8000688:	4b15      	ldr	r3, [pc, #84]	@ (80006e0 <configure_LED_pin+0x5c>)
 800068a:	6cdb      	ldr	r3, [r3, #76]	@ 0x4c
 800068c:	4a14      	ldr	r2, [pc, #80]	@ (80006e0 <configure_LED_pin+0x5c>)
 800068e:	f043 0301 	orr.w	r3, r3, #1
 8000692:	64d3      	str	r3, [r2, #76]	@ 0x4c

	// 2. Configure GPIO Mode to 'Output': 01
	GPIOA->MODER &= ~(3UL<<(2*LED_PIN));
 8000694:	f04f 4390 	mov.w	r3, #1207959552	@ 0x48000000
 8000698:	681b      	ldr	r3, [r3, #0]
 800069a:	f04f 4290 	mov.w	r2, #1207959552	@ 0x48000000
 800069e:	f423 3340 	bic.w	r3, r3, #196608	@ 0x30000
 80006a2:	6013      	str	r3, [r2, #0]
	GPIOA->MODER |=   1UL<<(2*LED_PIN);		// Output(01)
 80006a4:	f04f 4390 	mov.w	r3, #1207959552	@ 0x48000000
 80006a8:	681b      	ldr	r3, [r3, #0]
 80006aa:	f04f 4290 	mov.w	r2, #1207959552	@ 0x48000000
 80006ae:	f443 3380 	orr.w	r3, r3, #65536	@ 0x10000
 80006b2:	6013      	str	r3, [r2, #0]

	// 3. Configure GPIO Output Type to 'Push-Pull': 0
	GPIOA->OTYPER &= ~(1<<LED_PIN);       // Push-pull
 80006b4:	f04f 4390 	mov.w	r3, #1207959552	@ 0x48000000
 80006b8:	685b      	ldr	r3, [r3, #4]
 80006ba:	f04f 4290 	mov.w	r2, #1207959552	@ 0x48000000
 80006be:	f423 7380 	bic.w	r3, r3, #256	@ 0x100
 80006c2:	6053      	str	r3, [r2, #4]

	// 4. Configure GPIO Push-Pull to 'No Pull-up or Pull-down': 00
	GPIOA->PUPDR  &= ~(3<<(2*LED_PIN));   // No pull-up, no pull-down
 80006c4:	f04f 4390 	mov.w	r3, #1207959552	@ 0x48000000
 80006c8:	68db      	ldr	r3, [r3, #12]
 80006ca:	f04f 4290 	mov.w	r2, #1207959552	@ 0x48000000
 80006ce:	f423 3340 	bic.w	r3, r3, #196608	@ 0x30000
 80006d2:	60d3      	str	r3, [r2, #12]
}
 80006d4:	bf00      	nop
 80006d6:	46bd      	mov	sp, r7
 80006d8:	f85d 7b04 	ldr.w	r7, [sp], #4
 80006dc:	4770      	bx	lr
 80006de:	bf00      	nop
 80006e0:	40021000 	.word	0x40021000

080006e4 <turn_on_LED>:

//Turn on the PA2 LED
void turn_on_LED()
{
 80006e4:	b480      	push	{r7}
 80006e6:	af00      	add	r7, sp, #0
	GPIOA->ODR |= 1 << LED_PIN;
 80006e8:	f04f 4390 	mov.w	r3, #1207959552	@ 0x48000000
 80006ec:	695b      	ldr	r3, [r3, #20]
 80006ee:	f04f 4290 	mov.w	r2, #1207959552	@ 0x48000000
 80006f2:	f443 7380 	orr.w	r3, r3, #256	@ 0x100
 80006f6:	6153      	str	r3, [r2, #20]
}
 80006f8:	bf00      	nop
 80006fa:	46bd      	mov	sp, r7
 80006fc:	f85d 7b04 	ldr.w	r7, [sp], #4
 8000700:	4770      	bx	lr

08000702 <turn_off_LED>:

//Turn of the PA2 LED
void turn_off_LED()
{
 8000702:	b480      	push	{r7}
 8000704:	af00      	add	r7, sp, #0
	GPIOA->ODR &= ~(1 << LED_PIN);
 8000706:	f04f 4390 	mov.w	r3, #1207959552	@ 0x48000000
 800070a:	695b      	ldr	r3, [r3, #20]
 800070c:	f04f 4290 	mov.w	r2, #1207959552	@ 0x48000000
 8000710:	f423 7380 	bic.w	r3, r3, #256	@ 0x100
 8000714:	6153      	str	r3, [r2, #20]
}
 8000716:	bf00      	nop
 8000718:	46bd      	mov	sp, r7
 800071a:	f85d 7b04 	ldr.w	r7, [sp], #4
 800071e:	4770      	bx	lr

08000720 <configure_PA1>:
#define PA1  1

// PA1  <--> SERVO

void configure_PA1()
{
 8000720:	b480      	push	{r7}
 8000722:	af00      	add	r7, sp, #0
    // 1. Enable the clock to GPIO Port A
	RCC->AHB2ENR |= RCC_AHB2ENR_GPIOAEN;
 8000724:	4b1d      	ldr	r3, [pc, #116]	@ (800079c <configure_PA1+0x7c>)
 8000726:	6cdb      	ldr	r3, [r3, #76]	@ 0x4c
 8000728:	4a1c      	ldr	r2, [pc, #112]	@ (800079c <configure_PA1+0x7c>)
 800072a:	f043 0301 	orr.w	r3, r3, #1
 800072e:	64d3      	str	r3, [r2, #76]	@ 0x4c

	// 2. Configure GPIO Mode to 'Alternative Function' mode: Input(00), Output(01), Alternative Function(10), Analog(11)
	GPIOA->MODER &= ~(0b11<<(2*PA1));
 8000730:	f04f 4390 	mov.w	r3, #1207959552	@ 0x48000000
 8000734:	681b      	ldr	r3, [r3, #0]
 8000736:	f04f 4290 	mov.w	r2, #1207959552	@ 0x48000000
 800073a:	f023 030c 	bic.w	r3, r3, #12
 800073e:	6013      	str	r3, [r2, #0]
	GPIOA->MODER |=   0b10<<(2*PA1);      // Alternative Function(10)
 8000740:	f04f 4390 	mov.w	r3, #1207959552	@ 0x48000000
 8000744:	681b      	ldr	r3, [r3, #0]
 8000746:	f04f 4290 	mov.w	r2, #1207959552	@ 0x48000000
 800074a:	f043 0308 	orr.w	r3, r3, #8
 800074e:	6013      	str	r3, [r2, #0]

	// 3. Select PA1's alternative function as TIM5_CH2, which is 'AF2', by configuring the GPIOA_AFRL register
	GPIOA->AFR[0] &= ~(0b1111 << (4*PA1));
 8000750:	f04f 4390 	mov.w	r3, #1207959552	@ 0x48000000
 8000754:	6a1b      	ldr	r3, [r3, #32]
 8000756:	f04f 4290 	mov.w	r2, #1207959552	@ 0x48000000
 800075a:	f023 03f0 	bic.w	r3, r3, #240	@ 0xf0
 800075e:	6213      	str	r3, [r2, #32]
	GPIOA->AFR[0] |= 0b0010 << (4*PA1); // AF2
 8000760:	f04f 4390 	mov.w	r3, #1207959552	@ 0x48000000
 8000764:	6a1b      	ldr	r3, [r3, #32]
 8000766:	f04f 4290 	mov.w	r2, #1207959552	@ 0x48000000
 800076a:	f043 0320 	orr.w	r3, r3, #32
 800076e:	6213      	str	r3, [r2, #32]

	// 4. Configure GPIO Output Type to 'Push-Pull': Output push-pull (0), Output open drain (1)
	GPIOA->OTYPER &= ~(1<<PA1);      // Push-pull
 8000770:	f04f 4390 	mov.w	r3, #1207959552	@ 0x48000000
 8000774:	685b      	ldr	r3, [r3, #4]
 8000776:	f04f 4290 	mov.w	r2, #1207959552	@ 0x48000000
 800077a:	f023 0302 	bic.w	r3, r3, #2
 800077e:	6053      	str	r3, [r2, #4]

	// 5. Configure GPIO Push-Pull to 'No Pull-up or Pull-down': No pull-up, pull-down (00), Pull-up (01), Pull-down (10), Reserved (11)
	GPIOA->PUPDR  &= ~(0b11<<(2*PA1));  // No pull-up, no pull-down
 8000780:	f04f 4390 	mov.w	r3, #1207959552	@ 0x48000000
 8000784:	68db      	ldr	r3, [r3, #12]
 8000786:	f04f 4290 	mov.w	r2, #1207959552	@ 0x48000000
 800078a:	f023 030c 	bic.w	r3, r3, #12
 800078e:	60d3      	str	r3, [r2, #12]
}
 8000790:	bf00      	nop
 8000792:	46bd      	mov	sp, r7
 8000794:	f85d 7b04 	ldr.w	r7, [sp], #4
 8000798:	4770      	bx	lr
 800079a:	bf00      	nop
 800079c:	40021000 	.word	0x40021000

080007a0 <TIM5_CH2_Init>:

void TIM5_CH2_Init()
{
 80007a0:	b480      	push	{r7}
 80007a2:	af00      	add	r7, sp, #0
    //1. Enable the clock to TIM5 by configuring RCC_APB1ENR1 register
	RCC->APB1ENR1 |= RCC_APB1ENR1_TIM5EN;
 80007a4:	4b20      	ldr	r3, [pc, #128]	@ (8000828 <TIM5_CH2_Init+0x88>)
 80007a6:	6d9b      	ldr	r3, [r3, #88]	@ 0x58
 80007a8:	4a1f      	ldr	r2, [pc, #124]	@ (8000828 <TIM5_CH2_Init+0x88>)
 80007aa:	f043 0308 	orr.w	r3, r3, #8
 80007ae:	6593      	str	r3, [r2, #88]	@ 0x58

    //2. Configure TIM5 counting mode to upcounting (TIMx_CR1)
	TIM5->CR1 &= ~(0b1 << 4);
 80007b0:	4b1e      	ldr	r3, [pc, #120]	@ (800082c <TIM5_CH2_Init+0x8c>)
 80007b2:	681b      	ldr	r3, [r3, #0]
 80007b4:	4a1d      	ldr	r2, [pc, #116]	@ (800082c <TIM5_CH2_Init+0x8c>)
 80007b6:	f023 0310 	bic.w	r3, r3, #16
 80007ba:	6013      	str	r3, [r2, #0]

	//3. Configure TIM5 Prescalar (TIMx_PSC) and ARR (TIMx_ARR) to generate a counter period of 20 ms
	TIM5->PSC = 1;
 80007bc:	4b1b      	ldr	r3, [pc, #108]	@ (800082c <TIM5_CH2_Init+0x8c>)
 80007be:	2201      	movs	r2, #1
 80007c0:	629a      	str	r2, [r3, #40]	@ 0x28
	TIM5->ARR = 39999;
 80007c2:	4b1a      	ldr	r3, [pc, #104]	@ (800082c <TIM5_CH2_Init+0x8c>)
 80007c4:	f649 423f 	movw	r2, #39999	@ 0x9c3f
 80007c8:	62da      	str	r2, [r3, #44]	@ 0x2c

	//4. Configure TIMx_CCMR1 CC2S[1:0] bits to output mode for TIM5 Channel 2
	TIM5->CCMR1 &= ~(0b11 << 8);
 80007ca:	4b18      	ldr	r3, [pc, #96]	@ (800082c <TIM5_CH2_Init+0x8c>)
 80007cc:	699b      	ldr	r3, [r3, #24]
 80007ce:	4a17      	ldr	r2, [pc, #92]	@ (800082c <TIM5_CH2_Init+0x8c>)
 80007d0:	f423 7340 	bic.w	r3, r3, #768	@ 0x300
 80007d4:	6193      	str	r3, [r2, #24]

	//5. Configure TIMx_CCMR1 OC2M[3:0] bits to PWM mode 1 ('0110') for TIM5 Channel 2
	TIM5->CCMR1 &= ~(0b111U << 12); // clear bits 14:12
 80007d6:	4b15      	ldr	r3, [pc, #84]	@ (800082c <TIM5_CH2_Init+0x8c>)
 80007d8:	699b      	ldr	r3, [r3, #24]
 80007da:	4a14      	ldr	r2, [pc, #80]	@ (800082c <TIM5_CH2_Init+0x8c>)
 80007dc:	f423 43e0 	bic.w	r3, r3, #28672	@ 0x7000
 80007e0:	6193      	str	r3, [r2, #24]
	TIM5->CCMR1 |=  (0b110U << 12); // set bits 14:12 to 110 (PWM mode 1)
 80007e2:	4b12      	ldr	r3, [pc, #72]	@ (800082c <TIM5_CH2_Init+0x8c>)
 80007e4:	699b      	ldr	r3, [r3, #24]
 80007e6:	4a11      	ldr	r2, [pc, #68]	@ (800082c <TIM5_CH2_Init+0x8c>)
 80007e8:	f443 43c0 	orr.w	r3, r3, #24576	@ 0x6000
 80007ec:	6193      	str	r3, [r2, #24]

    //6. Set TIMx_CCER CC2E bit to enable output signal on Channel 2
	TIM5->CCER &= ~(0b1 << 4);
 80007ee:	4b0f      	ldr	r3, [pc, #60]	@ (800082c <TIM5_CH2_Init+0x8c>)
 80007f0:	6a1b      	ldr	r3, [r3, #32]
 80007f2:	4a0e      	ldr	r2, [pc, #56]	@ (800082c <TIM5_CH2_Init+0x8c>)
 80007f4:	f023 0310 	bic.w	r3, r3, #16
 80007f8:	6213      	str	r3, [r2, #32]
	TIM5->CCER |=   0b1 << 4;
 80007fa:	4b0c      	ldr	r3, [pc, #48]	@ (800082c <TIM5_CH2_Init+0x8c>)
 80007fc:	6a1b      	ldr	r3, [r3, #32]
 80007fe:	4a0b      	ldr	r2, [pc, #44]	@ (800082c <TIM5_CH2_Init+0x8c>)
 8000800:	f043 0310 	orr.w	r3, r3, #16
 8000804:	6213      	str	r3, [r2, #32]

	//7. Set TIMx_CR1 CEN bit to enable the TIM2 counter
	TIM5->CR1 &= ~(0b1);
 8000806:	4b09      	ldr	r3, [pc, #36]	@ (800082c <TIM5_CH2_Init+0x8c>)
 8000808:	681b      	ldr	r3, [r3, #0]
 800080a:	4a08      	ldr	r2, [pc, #32]	@ (800082c <TIM5_CH2_Init+0x8c>)
 800080c:	f023 0301 	bic.w	r3, r3, #1
 8000810:	6013      	str	r3, [r2, #0]
	TIM5->CR1 |=   0b1;
 8000812:	4b06      	ldr	r3, [pc, #24]	@ (800082c <TIM5_CH2_Init+0x8c>)
 8000814:	681b      	ldr	r3, [r3, #0]
 8000816:	4a05      	ldr	r2, [pc, #20]	@ (800082c <TIM5_CH2_Init+0x8c>)
 8000818:	f043 0301 	orr.w	r3, r3, #1
 800081c:	6013      	str	r3, [r2, #0]
}
 800081e:	bf00      	nop
 8000820:	46bd      	mov	sp, r7
 8000822:	f85d 7b04 	ldr.w	r7, [sp], #4
 8000826:	4770      	bx	lr
 8000828:	40021000 	.word	0x40021000
 800082c:	40000c00 	.word	0x40000c00

08000830 <Servo_Move_Center_All>:

void Servo_Move_Center_All()
{
 8000830:	b480      	push	{r7}
 8000832:	af00      	add	r7, sp, #0
	TIM5->CCR2 = 3000;
 8000834:	4b04      	ldr	r3, [pc, #16]	@ (8000848 <Servo_Move_Center_All+0x18>)
 8000836:	f640 32b8 	movw	r2, #3000	@ 0xbb8
 800083a:	639a      	str	r2, [r3, #56]	@ 0x38
}
 800083c:	bf00      	nop
 800083e:	46bd      	mov	sp, r7
 8000840:	f85d 7b04 	ldr.w	r7, [sp], #4
 8000844:	4770      	bx	lr
 8000846:	bf00      	nop
 8000848:	40000c00 	.word	0x40000c00

0800084c <Servo_Move_Off_FlickSwitch>:
///////////////////////////////////////////////////////////////////////
// FlickSwitch
///////////////////////////////////////////////////////////////////////

void Servo_Move_Off_FlickSwitch()
{
 800084c:	b480      	push	{r7}
 800084e:	af00      	add	r7, sp, #0
	TIM5->CCR2 = 2200;
 8000850:	4b04      	ldr	r3, [pc, #16]	@ (8000864 <Servo_Move_Off_FlickSwitch+0x18>)
 8000852:	f640 0298 	movw	r2, #2200	@ 0x898
 8000856:	639a      	str	r2, [r3, #56]	@ 0x38
}
 8000858:	bf00      	nop
 800085a:	46bd      	mov	sp, r7
 800085c:	f85d 7b04 	ldr.w	r7, [sp], #4
 8000860:	4770      	bx	lr
 8000862:	bf00      	nop
 8000864:	40000c00 	.word	0x40000c00

08000868 <Servo_Move_On_FlickSwitch>:

void Servo_Move_On_FlickSwitch()
{
 8000868:	b480      	push	{r7}
 800086a:	af00      	add	r7, sp, #0
	TIM5->CCR2 = 3800;
 800086c:	4b04      	ldr	r3, [pc, #16]	@ (8000880 <Servo_Move_On_FlickSwitch+0x18>)
 800086e:	f640 62d8 	movw	r2, #3800	@ 0xed8
 8000872:	639a      	str	r2, [r3, #56]	@ 0x38
}
 8000874:	bf00      	nop
 8000876:	46bd      	mov	sp, r7
 8000878:	f85d 7b04 	ldr.w	r7, [sp], #4
 800087c:	4770      	bx	lr
 800087e:	bf00      	nop
 8000880:	40000c00 	.word	0x40000c00

08000884 <__NVIC_EnableIRQ>:
  \details Enables a device specific interrupt in the NVIC interrupt controller.
  \param [in]      IRQn  Device specific interrupt number.
  \note    IRQn must not be negative.
 */
__STATIC_INLINE void __NVIC_EnableIRQ(IRQn_Type IRQn)
{
 8000884:	b480      	push	{r7}
 8000886:	b083      	sub	sp, #12
 8000888:	af00      	add	r7, sp, #0
 800088a:	4603      	mov	r3, r0
 800088c:	71fb      	strb	r3, [r7, #7]
  if ((int32_t)(IRQn) >= 0)
 800088e:	f997 3007 	ldrsb.w	r3, [r7, #7]
 8000892:	2b00      	cmp	r3, #0
 8000894:	db0b      	blt.n	80008ae <__NVIC_EnableIRQ+0x2a>
  {
    __COMPILER_BARRIER();
    NVIC->ISER[(((uint32_t)IRQn) >> 5UL)] = (uint32_t)(1UL << (((uint32_t)IRQn) & 0x1FUL));
 8000896:	79fb      	ldrb	r3, [r7, #7]
 8000898:	f003 021f 	and.w	r2, r3, #31
 800089c:	4907      	ldr	r1, [pc, #28]	@ (80008bc <__NVIC_EnableIRQ+0x38>)
 800089e:	f997 3007 	ldrsb.w	r3, [r7, #7]
 80008a2:	095b      	lsrs	r3, r3, #5
 80008a4:	2001      	movs	r0, #1
 80008a6:	fa00 f202 	lsl.w	r2, r0, r2
 80008aa:	f841 2023 	str.w	r2, [r1, r3, lsl #2]
    __COMPILER_BARRIER();
  }
}
 80008ae:	bf00      	nop
 80008b0:	370c      	adds	r7, #12
 80008b2:	46bd      	mov	sp, r7
 80008b4:	f85d 7b04 	ldr.w	r7, [sp], #4
 80008b8:	4770      	bx	lr
 80008ba:	bf00      	nop
 80008bc:	e000e100 	.word	0xe000e100

080008c0 <USART1_Pin_Init>:
    }
}

// This function initializes the GPIO pins used for USART1 communication.
void USART1_Pin_Init(void)
{
 80008c0:	b480      	push	{r7}
 80008c2:	af00      	add	r7, sp, #0
	// Enable the clock for GPIO Port A to allow pin configuration.
	RCC->AHB2ENR |= RCC_AHB2ENR_GPIOAEN;
 80008c4:	4b15      	ldr	r3, [pc, #84]	@ (800091c <USART1_Pin_Init+0x5c>)
 80008c6:	6cdb      	ldr	r3, [r3, #76]	@ 0x4c
 80008c8:	4a14      	ldr	r2, [pc, #80]	@ (800091c <USART1_Pin_Init+0x5c>)
 80008ca:	f043 0301 	orr.w	r3, r3, #1
 80008ce:	64d3      	str	r3, [r2, #76]	@ 0x4c

	// Clear the mode bits for PA9 and PA10.
    GPIOA->MODER &= ~((3U << (2 * TX_PIN)) | (3U << (2 * RX_PIN)));
 80008d0:	f04f 4390 	mov.w	r3, #1207959552	@ 0x48000000
 80008d4:	681b      	ldr	r3, [r3, #0]
 80008d6:	f04f 4290 	mov.w	r2, #1207959552	@ 0x48000000
 80008da:	f423 1370 	bic.w	r3, r3, #3932160	@ 0x3c0000
 80008de:	6013      	str	r3, [r2, #0]

    // Set PA9 and PA10 to Alternate Function mode ('10').
    GPIOA->MODER |=  ((2U << (2 * TX_PIN)) | (2U << (2 * RX_PIN)));
 80008e0:	f04f 4390 	mov.w	r3, #1207959552	@ 0x48000000
 80008e4:	681b      	ldr	r3, [r3, #0]
 80008e6:	f04f 4290 	mov.w	r2, #1207959552	@ 0x48000000
 80008ea:	f443 1320 	orr.w	r3, r3, #2621440	@ 0x280000
 80008ee:	6013      	str	r3, [r2, #0]

    // Clear alternate function selection bits for PA9 and PA10
    GPIOA->AFR[1] &= ~((0xFU << (4 * (TX_PIN - 8))) | (0xFU << (4 * (RX_PIN - 8))));
 80008f0:	f04f 4390 	mov.w	r3, #1207959552	@ 0x48000000
 80008f4:	6a5b      	ldr	r3, [r3, #36]	@ 0x24
 80008f6:	f04f 4290 	mov.w	r2, #1207959552	@ 0x48000000
 80008fa:	f423 637f 	bic.w	r3, r3, #4080	@ 0xff0
 80008fe:	6253      	str	r3, [r2, #36]	@ 0x24

    // Set alternate function 7 (USART1) for PA9 and PA10
    GPIOA->AFR[1] |=  ((7U   << (4 * (TX_PIN - 8))) | (7U   << (4 * (RX_PIN - 8))));
 8000900:	f04f 4390 	mov.w	r3, #1207959552	@ 0x48000000
 8000904:	6a5b      	ldr	r3, [r3, #36]	@ 0x24
 8000906:	f04f 4290 	mov.w	r2, #1207959552	@ 0x48000000
 800090a:	f443 63ee 	orr.w	r3, r3, #1904	@ 0x770
 800090e:	6253      	str	r3, [r2, #36]	@ 0x24
}
 8000910:	bf00      	nop
 8000912:	46bd      	mov	sp, r7
 8000914:	f85d 7b04 	ldr.w	r7, [sp], #4
 8000918:	4770      	bx	lr
 800091a:	bf00      	nop
 800091c:	40021000 	.word	0x40021000

08000920 <USART1_Init>:

void USART1_Init(void)
{
 8000920:	b580      	push	{r7, lr}
 8000922:	af00      	add	r7, sp, #0
	// data format to be set: 8 data bits, no parity, 1 start bit, and 1 stop bit
	// baud rate to be set: 9600

	// Enable the USART1 clock in the APB2 peripheral clock enable register
	RCC->APB2ENR |= RCC_APB2ENR_USART1EN;
 8000924:	4b24      	ldr	r3, [pc, #144]	@ (80009b8 <USART1_Init+0x98>)
 8000926:	6e1b      	ldr	r3, [r3, #96]	@ 0x60
 8000928:	4a23      	ldr	r2, [pc, #140]	@ (80009b8 <USART1_Init+0x98>)
 800092a:	f443 4380 	orr.w	r3, r3, #16384	@ 0x4000
 800092e:	6613      	str	r3, [r2, #96]	@ 0x60

	// Initialize the TX and RX pins for USART1 communication
	USART1_Pin_Init();
 8000930:	f7ff ffc6 	bl	80008c0 <USART1_Pin_Init>

	// Disabling USART to allow configuration
    USART1->CR1 &= ~USART_CR1_UE;
 8000934:	4b21      	ldr	r3, [pc, #132]	@ (80009bc <USART1_Init+0x9c>)
 8000936:	681b      	ldr	r3, [r3, #0]
 8000938:	4a20      	ldr	r2, [pc, #128]	@ (80009bc <USART1_Init+0x9c>)
 800093a:	f023 0301 	bic.w	r3, r3, #1
 800093e:	6013      	str	r3, [r2, #0]

    // Configuring word length: 8 data bits
    // M bit settings: 00 = 8 data bits, 01 = 9 data bits, 10 = 7 data bits
    USART1->CR1 &= ~USART_CR1_M0;
 8000940:	4b1e      	ldr	r3, [pc, #120]	@ (80009bc <USART1_Init+0x9c>)
 8000942:	681b      	ldr	r3, [r3, #0]
 8000944:	4a1d      	ldr	r2, [pc, #116]	@ (80009bc <USART1_Init+0x9c>)
 8000946:	f423 5380 	bic.w	r3, r3, #4096	@ 0x1000
 800094a:	6013      	str	r3, [r2, #0]

    // Configuring the number of stop bits: 1 stop bit
    // STOP bits settings: 00 = 1 Stop bit, 01 = 0.5 Stop bit, 10 = 2 Stop bits, 11 = 1.5 Stop bits
    USART1->CR2 &= ~USART_CR2_STOP;
 800094c:	4b1b      	ldr	r3, [pc, #108]	@ (80009bc <USART1_Init+0x9c>)
 800094e:	685b      	ldr	r3, [r3, #4]
 8000950:	4a1a      	ldr	r2, [pc, #104]	@ (80009bc <USART1_Init+0x9c>)
 8000952:	f423 5340 	bic.w	r3, r3, #12288	@ 0x3000
 8000956:	6053      	str	r3, [r2, #4]

    // Setting the oversampling mode to 16
    // OVER8 = 0 for oversampling by 16, 1 for oversampling by 8
    USART1->CR1 &= ~USART_CR1_OVER8;
 8000958:	4b18      	ldr	r3, [pc, #96]	@ (80009bc <USART1_Init+0x9c>)
 800095a:	681b      	ldr	r3, [r3, #0]
 800095c:	4a17      	ldr	r2, [pc, #92]	@ (80009bc <USART1_Init+0x9c>)
 800095e:	f423 4300 	bic.w	r3, r3, #32768	@ 0x8000
 8000962:	6013      	str	r3, [r2, #0]

    // Setting the baud rate to 9600 using the default APB frequency of 4,000,000 Hz
    // Calculation depends on the oversampling mode: if OVER8 = 0 (16x), BRR = f_CK / USARTDIV
    // For 9600 baud with f_CK = 4,000,000 Hz and 16x oversampling: USARTDIV = 4,000,000 / 9,600 = 417
    USART1->BRR = 417;
 8000964:	4b15      	ldr	r3, [pc, #84]	@ (80009bc <USART1_Init+0x9c>)
 8000966:	f240 12a1 	movw	r2, #417	@ 0x1a1
 800096a:	60da      	str	r2, [r3, #12]

    // Enabling the transmitter and receiver
    USART1->CR1 |= USART_CR1_TE | USART_CR1_RE;
 800096c:	4b13      	ldr	r3, [pc, #76]	@ (80009bc <USART1_Init+0x9c>)
 800096e:	681b      	ldr	r3, [r3, #0]
 8000970:	4a12      	ldr	r2, [pc, #72]	@ (80009bc <USART1_Init+0x9c>)
 8000972:	f043 030c 	orr.w	r3, r3, #12
 8000976:	6013      	str	r3, [r2, #0]

    // Enabling the RXNE (Receiver Data Register (RDR) Not Empty) interrupt
    USART1->CR1 |= USART_CR1_RXNEIE;
 8000978:	4b10      	ldr	r3, [pc, #64]	@ (80009bc <USART1_Init+0x9c>)
 800097a:	681b      	ldr	r3, [r3, #0]
 800097c:	4a0f      	ldr	r2, [pc, #60]	@ (80009bc <USART1_Init+0x9c>)
 800097e:	f043 0320 	orr.w	r3, r3, #32
 8000982:	6013      	str	r3, [r2, #0]

    // Enabling the USART1 interrupt in the NVIC
    NVIC_EnableIRQ(USART1_IRQn);
 8000984:	2025      	movs	r0, #37	@ 0x25
 8000986:	f7ff ff7d 	bl	8000884 <__NVIC_EnableIRQ>

    // Enabling USART after configuration is completed
    USART1->CR1 |= USART_CR1_UE;
 800098a:	4b0c      	ldr	r3, [pc, #48]	@ (80009bc <USART1_Init+0x9c>)
 800098c:	681b      	ldr	r3, [r3, #0]
 800098e:	4a0b      	ldr	r2, [pc, #44]	@ (80009bc <USART1_Init+0x9c>)
 8000990:	f043 0301 	orr.w	r3, r3, #1
 8000994:	6013      	str	r3, [r2, #0]

	// Ensuring the USART is ready for transmission and reception
	// Wait for TEACK: Transmitter Enable Acknowledge Flag
    while ((USART1->ISR & USART_ISR_TEACK) == 0);
 8000996:	bf00      	nop
 8000998:	4b08      	ldr	r3, [pc, #32]	@ (80009bc <USART1_Init+0x9c>)
 800099a:	69db      	ldr	r3, [r3, #28]
 800099c:	f403 1300 	and.w	r3, r3, #2097152	@ 0x200000
 80009a0:	2b00      	cmp	r3, #0
 80009a2:	d0f9      	beq.n	8000998 <USART1_Init+0x78>

	// Wait for REACK: Receiver Enable Acknowledge Flag
    while ((USART1->ISR & USART_ISR_REACK) == 0);
 80009a4:	bf00      	nop
 80009a6:	4b05      	ldr	r3, [pc, #20]	@ (80009bc <USART1_Init+0x9c>)
 80009a8:	69db      	ldr	r3, [r3, #28]
 80009aa:	f403 0380 	and.w	r3, r3, #4194304	@ 0x400000
 80009ae:	2b00      	cmp	r3, #0
 80009b0:	d0f9      	beq.n	80009a6 <USART1_Init+0x86>
}
 80009b2:	bf00      	nop
 80009b4:	bf00      	nop
 80009b6:	bd80      	pop	{r7, pc}
 80009b8:	40021000 	.word	0x40021000
 80009bc:	40013800 	.word	0x40013800

080009c0 <USART1_IRQHandler>:

// This function serves as the interrupt handler for USART2.
void USART1_IRQHandler(void)
{
 80009c0:	b480      	push	{r7}
 80009c2:	af00      	add	r7, sp, #0

    // Check if the RXNE (Receive Not Empty) interrupt is triggered, indicating new data is available in the USART_RDR register.
    if (USART1->ISR & USART_ISR_RXNE)
 80009c4:	4b11      	ldr	r3, [pc, #68]	@ (8000a0c <USART1_IRQHandler+0x4c>)
 80009c6:	69db      	ldr	r3, [r3, #28]
 80009c8:	f003 0320 	and.w	r3, r3, #32
 80009cc:	2b00      	cmp	r3, #0
 80009ce:	d019      	beq.n	8000a04 <USART1_IRQHandler+0x44>
    {
    	// Read data from the receiver data register (RDR), which also clears the RXNE flag.
    	USART1->ICR |= USART_ICR_ORECF;
 80009d0:	4b0e      	ldr	r3, [pc, #56]	@ (8000a0c <USART1_IRQHandler+0x4c>)
 80009d2:	6a1b      	ldr	r3, [r3, #32]
 80009d4:	4a0d      	ldr	r2, [pc, #52]	@ (8000a0c <USART1_IRQHandler+0x4c>)
 80009d6:	f043 0308 	orr.w	r3, r3, #8
 80009da:	6213      	str	r3, [r2, #32]

    	// Read data from the receiver data register (RDR), which also clears the RXNE flag.
    	bluetooth_button = (uint8_t)USART1->RDR;
 80009dc:	4b0b      	ldr	r3, [pc, #44]	@ (8000a0c <USART1_IRQHandler+0x4c>)
 80009de:	8c9b      	ldrh	r3, [r3, #36]	@ 0x24
 80009e0:	b29b      	uxth	r3, r3
 80009e2:	b2da      	uxtb	r2, r3
 80009e4:	4b0a      	ldr	r3, [pc, #40]	@ (8000a10 <USART1_IRQHandler+0x50>)
 80009e6:	701a      	strb	r2, [r3, #0]
    	bluetooth_data_ready = 1;
 80009e8:	4b0a      	ldr	r3, [pc, #40]	@ (8000a14 <USART1_IRQHandler+0x54>)
 80009ea:	2201      	movs	r2, #1
 80009ec:	701a      	strb	r2, [r3, #0]

        if (bluetooth_button == '\r' || bluetooth_button == '\n')
 80009ee:	4b08      	ldr	r3, [pc, #32]	@ (8000a10 <USART1_IRQHandler+0x50>)
 80009f0:	781b      	ldrb	r3, [r3, #0]
 80009f2:	b2db      	uxtb	r3, r3
 80009f4:	2b0d      	cmp	r3, #13
 80009f6:	d004      	beq.n	8000a02 <USART1_IRQHandler+0x42>
 80009f8:	4b05      	ldr	r3, [pc, #20]	@ (8000a10 <USART1_IRQHandler+0x50>)
 80009fa:	781b      	ldrb	r3, [r3, #0]
 80009fc:	b2db      	uxtb	r3, r3
 80009fe:	2b0a      	cmp	r3, #10
 8000a00:	e000      	b.n	8000a04 <USART1_IRQHandler+0x44>
        {
            return;
 8000a02:	bf00      	nop
        else
        {
            USART1_WriteString("?");
        } */
    }
}
 8000a04:	46bd      	mov	sp, r7
 8000a06:	f85d 7b04 	ldr.w	r7, [sp], #4
 8000a0a:	4770      	bx	lr
 8000a0c:	40013800 	.word	0x40013800
 8000a10:	2000001c 	.word	0x2000001c
 8000a14:	2000001d 	.word	0x2000001d

08000a18 <FPU_Enable>:
volatile uint16_t light_off_threshold_raw = 0;
volatile uint16_t light_off_drop_raw = 0;

volatile uint8_t light_state = 0; // global: 0 = off, 1 = on

void FPU_Enable(void) {
 8000a18:	b480      	push	{r7}
 8000a1a:	af00      	add	r7, sp, #0
	SCB->CPACR |= ((3UL << 20U) | (3UL << 22U));
 8000a1c:	4b09      	ldr	r3, [pc, #36]	@ (8000a44 <FPU_Enable+0x2c>)
 8000a1e:	f8d3 3088 	ldr.w	r3, [r3, #136]	@ 0x88
 8000a22:	4a08      	ldr	r2, [pc, #32]	@ (8000a44 <FPU_Enable+0x2c>)
 8000a24:	f443 0370 	orr.w	r3, r3, #15728640	@ 0xf00000
 8000a28:	f8c2 3088 	str.w	r3, [r2, #136]	@ 0x88
  \details Acts as a special kind of Data Memory Barrier.
           It completes when all explicit memory accesses before this instruction complete.
 */
__STATIC_FORCEINLINE void __DSB(void)
{
  __ASM volatile ("dsb 0xF":::"memory");
 8000a2c:	f3bf 8f4f 	dsb	sy
}
 8000a30:	bf00      	nop
  __ASM volatile ("isb 0xF":::"memory");
 8000a32:	f3bf 8f6f 	isb	sy
}
 8000a36:	bf00      	nop
	__DSB();
	__ISB();
}
 8000a38:	bf00      	nop
 8000a3a:	46bd      	mov	sp, r7
 8000a3c:	f85d 7b04 	ldr.w	r7, [sp], #4
 8000a40:	4770      	bx	lr
 8000a42:	bf00      	nop
 8000a44:	e000ed00 	.word	0xe000ed00

08000a48 <delay_ms>:

void delay_ms(uint32_t ms) //4mhz sysclk
{
 8000a48:	b480      	push	{r7}
 8000a4a:	b085      	sub	sp, #20
 8000a4c:	af00      	add	r7, sp, #0
 8000a4e:	6078      	str	r0, [r7, #4]
	for (uint32_t i = 0; i < ms; i++) {
 8000a50:	2300      	movs	r3, #0
 8000a52:	60fb      	str	r3, [r7, #12]
 8000a54:	e00d      	b.n	8000a72 <delay_ms+0x2a>
		for (volatile uint32_t j = 0; j < 4000; j++) {
 8000a56:	2300      	movs	r3, #0
 8000a58:	60bb      	str	r3, [r7, #8]
 8000a5a:	e003      	b.n	8000a64 <delay_ms+0x1c>
			__NOP();
 8000a5c:	bf00      	nop
		for (volatile uint32_t j = 0; j < 4000; j++) {
 8000a5e:	68bb      	ldr	r3, [r7, #8]
 8000a60:	3301      	adds	r3, #1
 8000a62:	60bb      	str	r3, [r7, #8]
 8000a64:	68bb      	ldr	r3, [r7, #8]
 8000a66:	f5b3 6f7a 	cmp.w	r3, #4000	@ 0xfa0
 8000a6a:	d3f7      	bcc.n	8000a5c <delay_ms+0x14>
	for (uint32_t i = 0; i < ms; i++) {
 8000a6c:	68fb      	ldr	r3, [r7, #12]
 8000a6e:	3301      	adds	r3, #1
 8000a70:	60fb      	str	r3, [r7, #12]
 8000a72:	68fa      	ldr	r2, [r7, #12]
 8000a74:	687b      	ldr	r3, [r7, #4]
 8000a76:	429a      	cmp	r2, r3
 8000a78:	d3ed      	bcc.n	8000a56 <delay_ms+0xe>
		}
	}
}
 8000a7a:	bf00      	nop
 8000a7c:	bf00      	nop
 8000a7e:	3714      	adds	r7, #20
 8000a80:	46bd      	mov	sp, r7
 8000a82:	f85d 7b04 	ldr.w	r7, [sp], #4
 8000a86:	4770      	bx	lr

08000a88 <calculate_lux>:

float calculate_lux(uint16_t raw_value) {
 8000a88:	b480      	push	{r7}
 8000a8a:	b083      	sub	sp, #12
 8000a8c:	af00      	add	r7, sp, #0
 8000a8e:	4603      	mov	r3, r0
 8000a90:	80fb      	strh	r3, [r7, #6]
	 * ALS_CONF_0 = 0x0000
	 * Gain = 1x
	 * Integration time = 100 ms
	 * Resolution ~= 0.0576 lux/count
	 */
	return raw_value * 0.0576f;
 8000a92:	88fb      	ldrh	r3, [r7, #6]
 8000a94:	ee07 3a90 	vmov	s15, r3
 8000a98:	eef8 7ae7 	vcvt.f32.s32	s15, s15
 8000a9c:	ed9f 7a05 	vldr	s14, [pc, #20]	@ 8000ab4 <calculate_lux+0x2c>
 8000aa0:	ee67 7a87 	vmul.f32	s15, s15, s14
}
 8000aa4:	eeb0 0a67 	vmov.f32	s0, s15
 8000aa8:	370c      	adds	r7, #12
 8000aaa:	46bd      	mov	sp, r7
 8000aac:	f85d 7b04 	ldr.w	r7, [sp], #4
 8000ab0:	4770      	bx	lr
 8000ab2:	bf00      	nop
 8000ab4:	3d6bedfa 	.word	0x3d6bedfa

08000ab8 <Ambient_CalibrateStartup>:

// set lux thresholds to match room
void Ambient_CalibrateStartup(void) {
 8000ab8:	b580      	push	{r7, lr}
 8000aba:	b086      	sub	sp, #24
 8000abc:	af00      	add	r7, sp, #0
	uint32_t sum = 0;
 8000abe:	2300      	movs	r3, #0
 8000ac0:	617b      	str	r3, [r7, #20]
	uint16_t sample = 0;
 8000ac2:	2300      	movs	r3, #0
 8000ac4:	817b      	strh	r3, [r7, #10]
	uint32_t valid_samples = 0;
 8000ac6:	2300      	movs	r3, #0
 8000ac8:	613b      	str	r3, [r7, #16]

	const uint32_t samples = 10;
 8000aca:	230a      	movs	r3, #10
 8000acc:	607b      	str	r3, [r7, #4]

	delay_ms(200);
 8000ace:	20c8      	movs	r0, #200	@ 0xc8
 8000ad0:	f7ff ffba 	bl	8000a48 <delay_ms>

	for (uint32_t i = 0; i < samples; i++) {
 8000ad4:	2300      	movs	r3, #0
 8000ad6:	60fb      	str	r3, [r7, #12]
 8000ad8:	e016      	b.n	8000b08 <Ambient_CalibrateStartup+0x50>
		sample = VEML7700_ReadReg16(VEML7700_ALS_DATA);
 8000ada:	2004      	movs	r0, #4
 8000adc:	f7ff fd20 	bl	8000520 <VEML7700_ReadReg16>
 8000ae0:	4603      	mov	r3, r0
 8000ae2:	817b      	strh	r3, [r7, #10]

		if (sample != 0xFFFF) {
 8000ae4:	897b      	ldrh	r3, [r7, #10]
 8000ae6:	f64f 72ff 	movw	r2, #65535	@ 0xffff
 8000aea:	4293      	cmp	r3, r2
 8000aec:	d006      	beq.n	8000afc <Ambient_CalibrateStartup+0x44>
			sum += sample;          // raw counts, not lux
 8000aee:	897b      	ldrh	r3, [r7, #10]
 8000af0:	697a      	ldr	r2, [r7, #20]
 8000af2:	4413      	add	r3, r2
 8000af4:	617b      	str	r3, [r7, #20]
			valid_samples++;
 8000af6:	693b      	ldr	r3, [r7, #16]
 8000af8:	3301      	adds	r3, #1
 8000afa:	613b      	str	r3, [r7, #16]
		}

		delay_ms(200);
 8000afc:	20c8      	movs	r0, #200	@ 0xc8
 8000afe:	f7ff ffa3 	bl	8000a48 <delay_ms>
	for (uint32_t i = 0; i < samples; i++) {
 8000b02:	68fb      	ldr	r3, [r7, #12]
 8000b04:	3301      	adds	r3, #1
 8000b06:	60fb      	str	r3, [r7, #12]
 8000b08:	68fa      	ldr	r2, [r7, #12]
 8000b0a:	687b      	ldr	r3, [r7, #4]
 8000b0c:	429a      	cmp	r2, r3
 8000b0e:	d3e4      	bcc.n	8000ada <Ambient_CalibrateStartup+0x22>
	}

	if (valid_samples == 0) {
 8000b10:	693b      	ldr	r3, [r7, #16]
 8000b12:	2b00      	cmp	r3, #0
 8000b14:	d10c      	bne.n	8000b30 <Ambient_CalibrateStartup+0x78>
		ambient_baseline_raw = 0;
 8000b16:	4b27      	ldr	r3, [pc, #156]	@ (8000bb4 <Ambient_CalibrateStartup+0xfc>)
 8000b18:	2200      	movs	r2, #0
 8000b1a:	801a      	strh	r2, [r3, #0]
		light_on_threshold_raw = 100;
 8000b1c:	4b26      	ldr	r3, [pc, #152]	@ (8000bb8 <Ambient_CalibrateStartup+0x100>)
 8000b1e:	2264      	movs	r2, #100	@ 0x64
 8000b20:	801a      	strh	r2, [r3, #0]
		light_off_threshold_raw = 200;
 8000b22:	4b26      	ldr	r3, [pc, #152]	@ (8000bbc <Ambient_CalibrateStartup+0x104>)
 8000b24:	22c8      	movs	r2, #200	@ 0xc8
 8000b26:	801a      	strh	r2, [r3, #0]
		light_off_drop_raw = 50;
 8000b28:	4b25      	ldr	r3, [pc, #148]	@ (8000bc0 <Ambient_CalibrateStartup+0x108>)
 8000b2a:	2232      	movs	r2, #50	@ 0x32
 8000b2c:	801a      	strh	r2, [r3, #0]
		return;
 8000b2e:	e03e      	b.n	8000bae <Ambient_CalibrateStartup+0xf6>
	}

	ambient_baseline_raw = sum / valid_samples;
 8000b30:	697a      	ldr	r2, [r7, #20]
 8000b32:	693b      	ldr	r3, [r7, #16]
 8000b34:	fbb2 f3f3 	udiv	r3, r2, r3
 8000b38:	b29a      	uxth	r2, r3
 8000b3a:	4b1e      	ldr	r3, [pc, #120]	@ (8000bb4 <Ambient_CalibrateStartup+0xfc>)
 8000b3c:	801a      	strh	r2, [r3, #0]

	light_on_threshold_raw = ambient_baseline_raw / 2U;
 8000b3e:	4b1d      	ldr	r3, [pc, #116]	@ (8000bb4 <Ambient_CalibrateStartup+0xfc>)
 8000b40:	881b      	ldrh	r3, [r3, #0]
 8000b42:	b29b      	uxth	r3, r3
 8000b44:	085b      	lsrs	r3, r3, #1
 8000b46:	b29a      	uxth	r2, r3
 8000b48:	4b1b      	ldr	r3, [pc, #108]	@ (8000bb8 <Ambient_CalibrateStartup+0x100>)
 8000b4a:	801a      	strh	r2, [r3, #0]
	light_off_threshold_raw = (ambient_baseline_raw * 8U) / 10U;
 8000b4c:	4b19      	ldr	r3, [pc, #100]	@ (8000bb4 <Ambient_CalibrateStartup+0xfc>)
 8000b4e:	881b      	ldrh	r3, [r3, #0]
 8000b50:	b29b      	uxth	r3, r3
 8000b52:	00db      	lsls	r3, r3, #3
 8000b54:	4a1b      	ldr	r2, [pc, #108]	@ (8000bc4 <Ambient_CalibrateStartup+0x10c>)
 8000b56:	fba2 2303 	umull	r2, r3, r2, r3
 8000b5a:	08db      	lsrs	r3, r3, #3
 8000b5c:	b29a      	uxth	r2, r3
 8000b5e:	4b17      	ldr	r3, [pc, #92]	@ (8000bbc <Ambient_CalibrateStartup+0x104>)
 8000b60:	801a      	strh	r2, [r3, #0]

	if (light_on_threshold_raw < 50U) {
 8000b62:	4b15      	ldr	r3, [pc, #84]	@ (8000bb8 <Ambient_CalibrateStartup+0x100>)
 8000b64:	881b      	ldrh	r3, [r3, #0]
 8000b66:	b29b      	uxth	r3, r3
 8000b68:	2b31      	cmp	r3, #49	@ 0x31
 8000b6a:	d802      	bhi.n	8000b72 <Ambient_CalibrateStartup+0xba>
		light_on_threshold_raw = 50U;
 8000b6c:	4b12      	ldr	r3, [pc, #72]	@ (8000bb8 <Ambient_CalibrateStartup+0x100>)
 8000b6e:	2232      	movs	r2, #50	@ 0x32
 8000b70:	801a      	strh	r2, [r3, #0]
	}

	if (light_off_threshold_raw <= light_on_threshold_raw) {
 8000b72:	4b12      	ldr	r3, [pc, #72]	@ (8000bbc <Ambient_CalibrateStartup+0x104>)
 8000b74:	881b      	ldrh	r3, [r3, #0]
 8000b76:	b29a      	uxth	r2, r3
 8000b78:	4b0f      	ldr	r3, [pc, #60]	@ (8000bb8 <Ambient_CalibrateStartup+0x100>)
 8000b7a:	881b      	ldrh	r3, [r3, #0]
 8000b7c:	b29b      	uxth	r3, r3
 8000b7e:	429a      	cmp	r2, r3
 8000b80:	d806      	bhi.n	8000b90 <Ambient_CalibrateStartup+0xd8>
		light_off_threshold_raw = light_on_threshold_raw + 100U;
 8000b82:	4b0d      	ldr	r3, [pc, #52]	@ (8000bb8 <Ambient_CalibrateStartup+0x100>)
 8000b84:	881b      	ldrh	r3, [r3, #0]
 8000b86:	b29b      	uxth	r3, r3
 8000b88:	3364      	adds	r3, #100	@ 0x64
 8000b8a:	b29a      	uxth	r2, r3
 8000b8c:	4b0b      	ldr	r3, [pc, #44]	@ (8000bbc <Ambient_CalibrateStartup+0x104>)
 8000b8e:	801a      	strh	r2, [r3, #0]
	}

	light_off_drop_raw = ambient_baseline_raw / 4U;
 8000b90:	4b08      	ldr	r3, [pc, #32]	@ (8000bb4 <Ambient_CalibrateStartup+0xfc>)
 8000b92:	881b      	ldrh	r3, [r3, #0]
 8000b94:	b29b      	uxth	r3, r3
 8000b96:	089b      	lsrs	r3, r3, #2
 8000b98:	b29a      	uxth	r2, r3
 8000b9a:	4b09      	ldr	r3, [pc, #36]	@ (8000bc0 <Ambient_CalibrateStartup+0x108>)
 8000b9c:	801a      	strh	r2, [r3, #0]

	if (light_off_drop_raw < 50U) {
 8000b9e:	4b08      	ldr	r3, [pc, #32]	@ (8000bc0 <Ambient_CalibrateStartup+0x108>)
 8000ba0:	881b      	ldrh	r3, [r3, #0]
 8000ba2:	b29b      	uxth	r3, r3
 8000ba4:	2b31      	cmp	r3, #49	@ 0x31
 8000ba6:	d802      	bhi.n	8000bae <Ambient_CalibrateStartup+0xf6>
		light_off_drop_raw = 50U;
 8000ba8:	4b05      	ldr	r3, [pc, #20]	@ (8000bc0 <Ambient_CalibrateStartup+0x108>)
 8000baa:	2232      	movs	r2, #50	@ 0x32
 8000bac:	801a      	strh	r2, [r3, #0]
	}
}
 8000bae:	3718      	adds	r7, #24
 8000bb0:	46bd      	mov	sp, r7
 8000bb2:	bd80      	pop	{r7, pc}
 8000bb4:	20000024 	.word	0x20000024
 8000bb8:	20000026 	.word	0x20000026
 8000bbc:	20000028 	.word	0x20000028
 8000bc0:	2000002a 	.word	0x2000002a
 8000bc4:	cccccccd 	.word	0xcccccccd

08000bc8 <Light_Reached_Target>:

	return 0;
}

uint8_t Light_Reached_Target(uint16_t starting_raw, uint16_t current_raw,
		char value[]) {
 8000bc8:	b580      	push	{r7, lr}
 8000bca:	b082      	sub	sp, #8
 8000bcc:	af00      	add	r7, sp, #0
 8000bce:	4603      	mov	r3, r0
 8000bd0:	603a      	str	r2, [r7, #0]
 8000bd2:	80fb      	strh	r3, [r7, #6]
 8000bd4:	460b      	mov	r3, r1
 8000bd6:	80bb      	strh	r3, [r7, #4]
	if (current_raw == 0xFFFF) {
 8000bd8:	88bb      	ldrh	r3, [r7, #4]
 8000bda:	f64f 72ff 	movw	r2, #65535	@ 0xffff
 8000bde:	4293      	cmp	r3, r2
 8000be0:	d101      	bne.n	8000be6 <Light_Reached_Target+0x1e>
		return 0;
 8000be2:	2300      	movs	r3, #0
 8000be4:	e03a      	b.n	8000c5c <Light_Reached_Target+0x94>
	}

	if (strcmp(value, "off") == 0) {
 8000be6:	491f      	ldr	r1, [pc, #124]	@ (8000c64 <Light_Reached_Target+0x9c>)
 8000be8:	6838      	ldr	r0, [r7, #0]
 8000bea:	f7ff faef 	bl	80001cc <strcmp>
 8000bee:	4603      	mov	r3, r0
 8000bf0:	2b00      	cmp	r3, #0
 8000bf2:	d115      	bne.n	8000c20 <Light_Reached_Target+0x58>
		if (current_raw < light_on_threshold_raw) {
 8000bf4:	4b1c      	ldr	r3, [pc, #112]	@ (8000c68 <Light_Reached_Target+0xa0>)
 8000bf6:	881b      	ldrh	r3, [r3, #0]
 8000bf8:	b29b      	uxth	r3, r3
 8000bfa:	88ba      	ldrh	r2, [r7, #4]
 8000bfc:	429a      	cmp	r2, r3
 8000bfe:	d201      	bcs.n	8000c04 <Light_Reached_Target+0x3c>
			return 1;
 8000c00:	2301      	movs	r3, #1
 8000c02:	e02b      	b.n	8000c5c <Light_Reached_Target+0x94>
		}

		if ((starting_raw > current_raw)
 8000c04:	88fa      	ldrh	r2, [r7, #6]
 8000c06:	88bb      	ldrh	r3, [r7, #4]
 8000c08:	429a      	cmp	r2, r3
 8000c0a:	d926      	bls.n	8000c5a <Light_Reached_Target+0x92>
				&& ((starting_raw - current_raw) >= light_off_drop_raw)) {
 8000c0c:	88fa      	ldrh	r2, [r7, #6]
 8000c0e:	88bb      	ldrh	r3, [r7, #4]
 8000c10:	1ad3      	subs	r3, r2, r3
 8000c12:	4a16      	ldr	r2, [pc, #88]	@ (8000c6c <Light_Reached_Target+0xa4>)
 8000c14:	8812      	ldrh	r2, [r2, #0]
 8000c16:	b292      	uxth	r2, r2
 8000c18:	4293      	cmp	r3, r2
 8000c1a:	db1e      	blt.n	8000c5a <Light_Reached_Target+0x92>
			return 1;
 8000c1c:	2301      	movs	r3, #1
 8000c1e:	e01d      	b.n	8000c5c <Light_Reached_Target+0x94>
		}
	} else if (strcmp(value, "on") == 0) {
 8000c20:	4913      	ldr	r1, [pc, #76]	@ (8000c70 <Light_Reached_Target+0xa8>)
 8000c22:	6838      	ldr	r0, [r7, #0]
 8000c24:	f7ff fad2 	bl	80001cc <strcmp>
 8000c28:	4603      	mov	r3, r0
 8000c2a:	2b00      	cmp	r3, #0
 8000c2c:	d115      	bne.n	8000c5a <Light_Reached_Target+0x92>
		if (current_raw > light_off_threshold_raw) {
 8000c2e:	4b11      	ldr	r3, [pc, #68]	@ (8000c74 <Light_Reached_Target+0xac>)
 8000c30:	881b      	ldrh	r3, [r3, #0]
 8000c32:	b29b      	uxth	r3, r3
 8000c34:	88ba      	ldrh	r2, [r7, #4]
 8000c36:	429a      	cmp	r2, r3
 8000c38:	d901      	bls.n	8000c3e <Light_Reached_Target+0x76>
			return 1;
 8000c3a:	2301      	movs	r3, #1
 8000c3c:	e00e      	b.n	8000c5c <Light_Reached_Target+0x94>
		}

		if ((current_raw > starting_raw)
 8000c3e:	88ba      	ldrh	r2, [r7, #4]
 8000c40:	88fb      	ldrh	r3, [r7, #6]
 8000c42:	429a      	cmp	r2, r3
 8000c44:	d909      	bls.n	8000c5a <Light_Reached_Target+0x92>
				&& ((current_raw - starting_raw) >= light_off_drop_raw)) {
 8000c46:	88ba      	ldrh	r2, [r7, #4]
 8000c48:	88fb      	ldrh	r3, [r7, #6]
 8000c4a:	1ad3      	subs	r3, r2, r3
 8000c4c:	4a07      	ldr	r2, [pc, #28]	@ (8000c6c <Light_Reached_Target+0xa4>)
 8000c4e:	8812      	ldrh	r2, [r2, #0]
 8000c50:	b292      	uxth	r2, r2
 8000c52:	4293      	cmp	r3, r2
 8000c54:	db01      	blt.n	8000c5a <Light_Reached_Target+0x92>
			return 1;
 8000c56:	2301      	movs	r3, #1
 8000c58:	e000      	b.n	8000c5c <Light_Reached_Target+0x94>
		}
	}

	return 0;
 8000c5a:	2300      	movs	r3, #0
}
 8000c5c:	4618      	mov	r0, r3
 8000c5e:	3708      	adds	r7, #8
 8000c60:	46bd      	mov	sp, r7
 8000c62:	bd80      	pop	{r7, pc}
 8000c64:	08000f40 	.word	0x08000f40
 8000c68:	20000026 	.word	0x20000026
 8000c6c:	2000002a 	.word	0x2000002a
 8000c70:	08000f44 	.word	0x08000f44
 8000c74:	20000028 	.word	0x20000028

08000c78 <Try_Turn_Light_Until_Target>:

uint8_t Try_Turn_Light_Until_Target(char value[]) {
 8000c78:	b580      	push	{r7, lr}
 8000c7a:	b084      	sub	sp, #16
 8000c7c:	af00      	add	r7, sp, #0
 8000c7e:	6078      	str	r0, [r7, #4]
	uint16_t starting_raw = 0;
 8000c80:	2300      	movs	r3, #0
 8000c82:	817b      	strh	r3, [r7, #10]
	uint16_t current_raw = 0;
 8000c84:	2300      	movs	r3, #0
 8000c86:	813b      	strh	r3, [r7, #8]
	uint32_t attempts = 0;
 8000c88:	2300      	movs	r3, #0
 8000c8a:	60fb      	str	r3, [r7, #12]

	// Store the lux/raw value from when the light is currently on
	starting_raw = VEML7700_ReadReg16(VEML7700_ALS_DATA);
 8000c8c:	2004      	movs	r0, #4
 8000c8e:	f7ff fc47 	bl	8000520 <VEML7700_ReadReg16>
 8000c92:	4603      	mov	r3, r0
 8000c94:	817b      	strh	r3, [r7, #10]

	if (starting_raw == 0xFFFF) {
 8000c96:	897b      	ldrh	r3, [r7, #10]
 8000c98:	f64f 72ff 	movw	r2, #65535	@ 0xffff
 8000c9c:	4293      	cmp	r3, r2
 8000c9e:	d153      	bne.n	8000d48 <Try_Turn_Light_Until_Target+0xd0>
		return 0; // sensor read failed
 8000ca0:	2300      	movs	r3, #0
 8000ca2:	e055      	b.n	8000d50 <Try_Turn_Light_Until_Target+0xd8>
	}

	while (attempts < LIGHT_OFF_MAX_ATTEMPTS) {
		if (strcmp(value, "on") == 0) {
 8000ca4:	492c      	ldr	r1, [pc, #176]	@ (8000d58 <Try_Turn_Light_Until_Target+0xe0>)
 8000ca6:	6878      	ldr	r0, [r7, #4]
 8000ca8:	f7ff fa90 	bl	80001cc <strcmp>
 8000cac:	4603      	mov	r3, r0
 8000cae:	2b00      	cmp	r3, #0
 8000cb0:	d104      	bne.n	8000cbc <Try_Turn_Light_Until_Target+0x44>
			Servo_Move_On_FlickSwitch();
 8000cb2:	f7ff fdd9 	bl	8000868 <Servo_Move_On_FlickSwitch>
			turn_on_LED();
 8000cb6:	f7ff fd15 	bl	80006e4 <turn_on_LED>
 8000cba:	e00d      	b.n	8000cd8 <Try_Turn_Light_Until_Target+0x60>
		} else if (strcmp(value, "off") == 0) {
 8000cbc:	4927      	ldr	r1, [pc, #156]	@ (8000d5c <Try_Turn_Light_Until_Target+0xe4>)
 8000cbe:	6878      	ldr	r0, [r7, #4]
 8000cc0:	f7ff fa84 	bl	80001cc <strcmp>
 8000cc4:	4603      	mov	r3, r0
 8000cc6:	2b00      	cmp	r3, #0
 8000cc8:	d104      	bne.n	8000cd4 <Try_Turn_Light_Until_Target+0x5c>
			Servo_Move_Off_FlickSwitch();
 8000cca:	f7ff fdbf 	bl	800084c <Servo_Move_Off_FlickSwitch>
			turn_off_LED();
 8000cce:	f7ff fd18 	bl	8000702 <turn_off_LED>
 8000cd2:	e001      	b.n	8000cd8 <Try_Turn_Light_Until_Target+0x60>
		} else {
			return 0;
 8000cd4:	2300      	movs	r3, #0
 8000cd6:	e03b      	b.n	8000d50 <Try_Turn_Light_Until_Target+0xd8>
		}

		delay_ms(LIGHT_OFF_VERIFY_DELAY_MS);
 8000cd8:	f44f 7096 	mov.w	r0, #300	@ 0x12c
 8000cdc:	f7ff feb4 	bl	8000a48 <delay_ms>

		current_raw = VEML7700_ReadReg16(VEML7700_ALS_DATA);
 8000ce0:	2004      	movs	r0, #4
 8000ce2:	f7ff fc1d 	bl	8000520 <VEML7700_ReadReg16>
 8000ce6:	4603      	mov	r3, r0
 8000ce8:	813b      	strh	r3, [r7, #8]

		if (Light_Reached_Target(starting_raw, current_raw, value)) {
 8000cea:	8939      	ldrh	r1, [r7, #8]
 8000cec:	897b      	ldrh	r3, [r7, #10]
 8000cee:	687a      	ldr	r2, [r7, #4]
 8000cf0:	4618      	mov	r0, r3
 8000cf2:	f7ff ff69 	bl	8000bc8 <Light_Reached_Target>
 8000cf6:	4603      	mov	r3, r0
 8000cf8:	2b00      	cmp	r3, #0
 8000cfa:	d022      	beq.n	8000d42 <Try_Turn_Light_Until_Target+0xca>
			raw = current_raw;
 8000cfc:	4a18      	ldr	r2, [pc, #96]	@ (8000d60 <Try_Turn_Light_Until_Target+0xe8>)
 8000cfe:	893b      	ldrh	r3, [r7, #8]
 8000d00:	8013      	strh	r3, [r2, #0]
			lux = calculate_lux(current_raw);
 8000d02:	893b      	ldrh	r3, [r7, #8]
 8000d04:	4618      	mov	r0, r3
 8000d06:	f7ff febf 	bl	8000a88 <calculate_lux>
 8000d0a:	eef0 7a40 	vmov.f32	s15, s0
 8000d0e:	4b15      	ldr	r3, [pc, #84]	@ (8000d64 <Try_Turn_Light_Until_Target+0xec>)
 8000d10:	edc3 7a00 	vstr	s15, [r3]

			if (strcmp(value, "on") == 0) {
 8000d14:	4910      	ldr	r1, [pc, #64]	@ (8000d58 <Try_Turn_Light_Until_Target+0xe0>)
 8000d16:	6878      	ldr	r0, [r7, #4]
 8000d18:	f7ff fa58 	bl	80001cc <strcmp>
 8000d1c:	4603      	mov	r3, r0
 8000d1e:	2b00      	cmp	r3, #0
 8000d20:	d103      	bne.n	8000d2a <Try_Turn_Light_Until_Target+0xb2>
				light_state = 1;
 8000d22:	4b11      	ldr	r3, [pc, #68]	@ (8000d68 <Try_Turn_Light_Until_Target+0xf0>)
 8000d24:	2201      	movs	r2, #1
 8000d26:	701a      	strb	r2, [r3, #0]
 8000d28:	e009      	b.n	8000d3e <Try_Turn_Light_Until_Target+0xc6>
			} else if (strcmp(value, "off") == 0) {
 8000d2a:	490c      	ldr	r1, [pc, #48]	@ (8000d5c <Try_Turn_Light_Until_Target+0xe4>)
 8000d2c:	6878      	ldr	r0, [r7, #4]
 8000d2e:	f7ff fa4d 	bl	80001cc <strcmp>
 8000d32:	4603      	mov	r3, r0
 8000d34:	2b00      	cmp	r3, #0
 8000d36:	d102      	bne.n	8000d3e <Try_Turn_Light_Until_Target+0xc6>
				light_state = 0;
 8000d38:	4b0b      	ldr	r3, [pc, #44]	@ (8000d68 <Try_Turn_Light_Until_Target+0xf0>)
 8000d3a:	2200      	movs	r2, #0
 8000d3c:	701a      	strb	r2, [r3, #0]
			}

			return 1;
 8000d3e:	2301      	movs	r3, #1
 8000d40:	e006      	b.n	8000d50 <Try_Turn_Light_Until_Target+0xd8>
		}

		attempts++;
 8000d42:	68fb      	ldr	r3, [r7, #12]
 8000d44:	3301      	adds	r3, #1
 8000d46:	60fb      	str	r3, [r7, #12]
	while (attempts < LIGHT_OFF_MAX_ATTEMPTS) {
 8000d48:	68fb      	ldr	r3, [r7, #12]
 8000d4a:	2b04      	cmp	r3, #4
 8000d4c:	d9aa      	bls.n	8000ca4 <Try_Turn_Light_Until_Target+0x2c>
	}

	return 0; // tried several times, but did not observe light drop
 8000d4e:	2300      	movs	r3, #0
}
 8000d50:	4618      	mov	r0, r3
 8000d52:	3710      	adds	r7, #16
 8000d54:	46bd      	mov	sp, r7
 8000d56:	bd80      	pop	{r7, pc}
 8000d58:	08000f44 	.word	0x08000f44
 8000d5c:	08000f40 	.word	0x08000f40
 8000d60:	2000001e 	.word	0x2000001e
 8000d64:	20000020 	.word	0x20000020
 8000d68:	2000002c 	.word	0x2000002c

08000d6c <main>:

int main(void) {
 8000d6c:	b580      	push	{r7, lr}
 8000d6e:	af00      	add	r7, sp, #0
	FPU_Enable();
 8000d70:	f7ff fe52 	bl	8000a18 <FPU_Enable>

	configure_PA1();
 8000d74:	f7ff fcd4 	bl	8000720 <configure_PA1>
	TIM5_CH2_Init();
 8000d78:	f7ff fd12 	bl	80007a0 <TIM5_CH2_Init>

	Servo_Move_Center_All();
 8000d7c:	f7ff fd58 	bl	8000830 <Servo_Move_Center_All>

	configure_LED_pin();
 8000d80:	f7ff fc80 	bl	8000684 <configure_LED_pin>

	USART1_Init();
 8000d84:	f7ff fdcc 	bl	8000920 <USART1_Init>

	I2C_GPIO_init();
 8000d88:	f7ff fa2a 	bl	80001e0 <I2C_GPIO_init>
	I2C_Initialization(I2C1, 0x10100909U);
 8000d8c:	4935      	ldr	r1, [pc, #212]	@ (8000e64 <main+0xf8>)
 8000d8e:	4836      	ldr	r0, [pc, #216]	@ (8000e68 <main+0xfc>)
 8000d90:	f7ff fa62 	bl	8000258 <I2C_Initialization>
	 * Gain = 1x
	 * Integration time = 100 ms
	 * Interrupt disabled
	 * Sensor enabled
	 */
	VEML7700_WriteReg16(VEML7700_ALS_CONF_0, 0x0000);
 8000d94:	2100      	movs	r1, #0
 8000d96:	2000      	movs	r0, #0
 8000d98:	f7ff fb9c 	bl	80004d4 <VEML7700_WriteReg16>

	delay_ms(200);
 8000d9c:	20c8      	movs	r0, #200	@ 0xc8
 8000d9e:	f7ff fe53 	bl	8000a48 <delay_ms>

	//NOTE: ROOM NEEDS TO HAVE LIGHT OFF SO AMBIENT IS ONLY CALCULATED BASED OFF ACTUAL AMBIENT LIGHT
	Ambient_CalibrateStartup();
 8000da2:	f7ff fe89 	bl	8000ab8 <Ambient_CalibrateStartup>

	while (1) {
		raw = VEML7700_ReadReg16(VEML7700_ALS_DATA);
 8000da6:	2004      	movs	r0, #4
 8000da8:	f7ff fbba 	bl	8000520 <VEML7700_ReadReg16>
 8000dac:	4603      	mov	r3, r0
 8000dae:	461a      	mov	r2, r3
 8000db0:	4b2e      	ldr	r3, [pc, #184]	@ (8000e6c <main+0x100>)
 8000db2:	801a      	strh	r2, [r3, #0]

		if (raw != 0xFFFF) {
 8000db4:	4b2d      	ldr	r3, [pc, #180]	@ (8000e6c <main+0x100>)
 8000db6:	881b      	ldrh	r3, [r3, #0]
 8000db8:	b29b      	uxth	r3, r3
 8000dba:	f64f 72ff 	movw	r2, #65535	@ 0xffff
 8000dbe:	4293      	cmp	r3, r2
 8000dc0:	d0f1      	beq.n	8000da6 <main+0x3a>
			lux = calculate_lux(raw);
 8000dc2:	4b2a      	ldr	r3, [pc, #168]	@ (8000e6c <main+0x100>)
 8000dc4:	881b      	ldrh	r3, [r3, #0]
 8000dc6:	b29b      	uxth	r3, r3
 8000dc8:	4618      	mov	r0, r3
 8000dca:	f7ff fe5d 	bl	8000a88 <calculate_lux>
 8000dce:	eef0 7a40 	vmov.f32	s15, s0
 8000dd2:	4b27      	ldr	r3, [pc, #156]	@ (8000e70 <main+0x104>)
 8000dd4:	edc3 7a00 	vstr	s15, [r3]

			if (bluetooth_button == '1') {
 8000dd8:	4b26      	ldr	r3, [pc, #152]	@ (8000e74 <main+0x108>)
 8000dda:	781b      	ldrb	r3, [r3, #0]
 8000ddc:	b2db      	uxtb	r3, r3
 8000dde:	2b31      	cmp	r3, #49	@ 0x31
 8000de0:	d109      	bne.n	8000df6 <main+0x8a>
				Try_Turn_Light_Until_Target("on");
 8000de2:	4825      	ldr	r0, [pc, #148]	@ (8000e78 <main+0x10c>)
 8000de4:	f7ff ff48 	bl	8000c78 <Try_Turn_Light_Until_Target>

				bluetooth_button = '\0';
 8000de8:	4b22      	ldr	r3, [pc, #136]	@ (8000e74 <main+0x108>)
 8000dea:	2200      	movs	r2, #0
 8000dec:	701a      	strb	r2, [r3, #0]
				delay_ms(LIGHT_SAMPLE_DELAY_MS);
 8000dee:	2064      	movs	r0, #100	@ 0x64
 8000df0:	f7ff fe2a 	bl	8000a48 <delay_ms>
				continue;
 8000df4:	e034      	b.n	8000e60 <main+0xf4>
				// dont want ambient light logic messing with manual flicking
			} else if (bluetooth_button == '0') {
 8000df6:	4b1f      	ldr	r3, [pc, #124]	@ (8000e74 <main+0x108>)
 8000df8:	781b      	ldrb	r3, [r3, #0]
 8000dfa:	b2db      	uxtb	r3, r3
 8000dfc:	2b30      	cmp	r3, #48	@ 0x30
 8000dfe:	d109      	bne.n	8000e14 <main+0xa8>
				Try_Turn_Light_Until_Target("off");
 8000e00:	481e      	ldr	r0, [pc, #120]	@ (8000e7c <main+0x110>)
 8000e02:	f7ff ff39 	bl	8000c78 <Try_Turn_Light_Until_Target>

				bluetooth_button = '\0';
 8000e06:	4b1b      	ldr	r3, [pc, #108]	@ (8000e74 <main+0x108>)
 8000e08:	2200      	movs	r2, #0
 8000e0a:	701a      	strb	r2, [r3, #0]
				delay_ms(LIGHT_SAMPLE_DELAY_MS);
 8000e0c:	2064      	movs	r0, #100	@ 0x64
 8000e0e:	f7ff fe1b 	bl	8000a48 <delay_ms>
				continue;
 8000e12:	e025      	b.n	8000e60 <main+0xf4>
			} else if ((raw < light_on_threshold_raw) && (light_state == 0)) {
 8000e14:	4b15      	ldr	r3, [pc, #84]	@ (8000e6c <main+0x100>)
 8000e16:	881b      	ldrh	r3, [r3, #0]
 8000e18:	b29a      	uxth	r2, r3
 8000e1a:	4b19      	ldr	r3, [pc, #100]	@ (8000e80 <main+0x114>)
 8000e1c:	881b      	ldrh	r3, [r3, #0]
 8000e1e:	b29b      	uxth	r3, r3
 8000e20:	429a      	cmp	r2, r3
 8000e22:	d20a      	bcs.n	8000e3a <main+0xce>
 8000e24:	4b17      	ldr	r3, [pc, #92]	@ (8000e84 <main+0x118>)
 8000e26:	781b      	ldrb	r3, [r3, #0]
 8000e28:	b2db      	uxtb	r3, r3
 8000e2a:	2b00      	cmp	r3, #0
 8000e2c:	d105      	bne.n	8000e3a <main+0xce>
				turn_off_LED();
 8000e2e:	f7ff fc68 	bl	8000702 <turn_off_LED>
				Try_Turn_Light_Until_Target("on");
 8000e32:	4811      	ldr	r0, [pc, #68]	@ (8000e78 <main+0x10c>)
 8000e34:	f7ff ff20 	bl	8000c78 <Try_Turn_Light_Until_Target>
 8000e38:	e00f      	b.n	8000e5a <main+0xee>
			} else if ((raw > light_off_threshold_raw) && (light_state == 1)) {
 8000e3a:	4b0c      	ldr	r3, [pc, #48]	@ (8000e6c <main+0x100>)
 8000e3c:	881b      	ldrh	r3, [r3, #0]
 8000e3e:	b29a      	uxth	r2, r3
 8000e40:	4b11      	ldr	r3, [pc, #68]	@ (8000e88 <main+0x11c>)
 8000e42:	881b      	ldrh	r3, [r3, #0]
 8000e44:	b29b      	uxth	r3, r3
 8000e46:	429a      	cmp	r2, r3
 8000e48:	d907      	bls.n	8000e5a <main+0xee>
 8000e4a:	4b0e      	ldr	r3, [pc, #56]	@ (8000e84 <main+0x118>)
 8000e4c:	781b      	ldrb	r3, [r3, #0]
 8000e4e:	b2db      	uxtb	r3, r3
 8000e50:	2b01      	cmp	r3, #1
 8000e52:	d102      	bne.n	8000e5a <main+0xee>
				Try_Turn_Light_Until_Target("off");
 8000e54:	4809      	ldr	r0, [pc, #36]	@ (8000e7c <main+0x110>)
 8000e56:	f7ff ff0f 	bl	8000c78 <Try_Turn_Light_Until_Target>
			}

			delay_ms(LIGHT_SAMPLE_DELAY_MS);
 8000e5a:	2064      	movs	r0, #100	@ 0x64
 8000e5c:	f7ff fdf4 	bl	8000a48 <delay_ms>
		raw = VEML7700_ReadReg16(VEML7700_ALS_DATA);
 8000e60:	e7a1      	b.n	8000da6 <main+0x3a>
 8000e62:	bf00      	nop
 8000e64:	10100909 	.word	0x10100909
 8000e68:	40005400 	.word	0x40005400
 8000e6c:	2000001e 	.word	0x2000001e
 8000e70:	20000020 	.word	0x20000020
 8000e74:	2000001c 	.word	0x2000001c
 8000e78:	08000f44 	.word	0x08000f44
 8000e7c:	08000f40 	.word	0x08000f40
 8000e80:	20000026 	.word	0x20000026
 8000e84:	2000002c 	.word	0x2000002c
 8000e88:	20000028 	.word	0x20000028

08000e8c <Reset_Handler>:

  .section .text.Reset_Handler
  .weak Reset_Handler
  .type Reset_Handler, %function
Reset_Handler:
     ldr   r0, =_estack
 8000e8c:	480d      	ldr	r0, [pc, #52]	@ (8000ec4 <LoopForever+0x2>)
  mov   sp, r0          /* set stack pointer */
 8000e8e:	4685      	mov	sp, r0
/* Call the clock system initialization function.*/
  bl  SystemInit
 8000e90:	f3af 8000 	nop.w

/* Copy the data segment initializers from flash to SRAM */
  ldr r0, =_sdata
 8000e94:	480c      	ldr	r0, [pc, #48]	@ (8000ec8 <LoopForever+0x6>)
  ldr r1, =_edata
 8000e96:	490d      	ldr	r1, [pc, #52]	@ (8000ecc <LoopForever+0xa>)
  ldr r2, =_sidata
 8000e98:	4a0d      	ldr	r2, [pc, #52]	@ (8000ed0 <LoopForever+0xe>)
  movs r3, #0
 8000e9a:	2300      	movs	r3, #0
  b LoopCopyDataInit
 8000e9c:	e002      	b.n	8000ea4 <LoopCopyDataInit>

08000e9e <CopyDataInit>:

CopyDataInit:
  ldr r4, [r2, r3]
 8000e9e:	58d4      	ldr	r4, [r2, r3]
  str r4, [r0, r3]
 8000ea0:	50c4      	str	r4, [r0, r3]
  adds r3, r3, #4
 8000ea2:	3304      	adds	r3, #4

08000ea4 <LoopCopyDataInit>:

LoopCopyDataInit:
  adds r4, r0, r3
 8000ea4:	18c4      	adds	r4, r0, r3
  cmp r4, r1
 8000ea6:	428c      	cmp	r4, r1
  bcc CopyDataInit
 8000ea8:	d3f9      	bcc.n	8000e9e <CopyDataInit>

/* Zero fill the bss segment. */
  ldr r2, =_sbss
 8000eaa:	4a0a      	ldr	r2, [pc, #40]	@ (8000ed4 <LoopForever+0x12>)
  ldr r4, =_ebss
 8000eac:	4c0a      	ldr	r4, [pc, #40]	@ (8000ed8 <LoopForever+0x16>)
  movs r3, #0
 8000eae:	2300      	movs	r3, #0
  b LoopFillZerobss
 8000eb0:	e001      	b.n	8000eb6 <LoopFillZerobss>

08000eb2 <FillZerobss>:

FillZerobss:
  str  r3, [r2]
 8000eb2:	6013      	str	r3, [r2, #0]
  adds r2, r2, #4
 8000eb4:	3204      	adds	r2, #4

08000eb6 <LoopFillZerobss>:

LoopFillZerobss:
  cmp r2, r4
 8000eb6:	42a2      	cmp	r2, r4
  bcc FillZerobss
 8000eb8:	d3fb      	bcc.n	8000eb2 <FillZerobss>


/* Call static constructors */
  bl __libc_init_array
 8000eba:	f000 f811 	bl	8000ee0 <__libc_init_array>
/* Call the application's entry point.*/

  bl main
 8000ebe:	f7ff ff55 	bl	8000d6c <main>

08000ec2 <LoopForever>:

LoopForever:
  b LoopForever
 8000ec2:	e7fe      	b.n	8000ec2 <LoopForever>
     ldr   r0, =_estack
 8000ec4:	20018000 	.word	0x20018000
  ldr r0, =_sdata
 8000ec8:	20000000 	.word	0x20000000
  ldr r1, =_edata
 8000ecc:	20000000 	.word	0x20000000
  ldr r2, =_sidata
 8000ed0:	08000f58 	.word	0x08000f58
  ldr r2, =_sbss
 8000ed4:	20000000 	.word	0x20000000
  ldr r4, =_ebss
 8000ed8:	20000030 	.word	0x20000030

08000edc <ADC1_2_IRQHandler>:
 * @retval : None
*/
  .section .text.Default_Handler,"ax",%progbits
Default_Handler:
Infinite_Loop:
  b Infinite_Loop
 8000edc:	e7fe      	b.n	8000edc <ADC1_2_IRQHandler>
	...

08000ee0 <__libc_init_array>:
 8000ee0:	b570      	push	{r4, r5, r6, lr}
 8000ee2:	4b0d      	ldr	r3, [pc, #52]	@ (8000f18 <__libc_init_array+0x38>)
 8000ee4:	4d0d      	ldr	r5, [pc, #52]	@ (8000f1c <__libc_init_array+0x3c>)
 8000ee6:	1b5b      	subs	r3, r3, r5
 8000ee8:	109c      	asrs	r4, r3, #2
 8000eea:	2600      	movs	r6, #0
 8000eec:	42a6      	cmp	r6, r4
 8000eee:	d109      	bne.n	8000f04 <__libc_init_array+0x24>
 8000ef0:	f000 f81a 	bl	8000f28 <_init>
 8000ef4:	4d0a      	ldr	r5, [pc, #40]	@ (8000f20 <__libc_init_array+0x40>)
 8000ef6:	4b0b      	ldr	r3, [pc, #44]	@ (8000f24 <__libc_init_array+0x44>)
 8000ef8:	1b5b      	subs	r3, r3, r5
 8000efa:	109c      	asrs	r4, r3, #2
 8000efc:	2600      	movs	r6, #0
 8000efe:	42a6      	cmp	r6, r4
 8000f00:	d105      	bne.n	8000f0e <__libc_init_array+0x2e>
 8000f02:	bd70      	pop	{r4, r5, r6, pc}
 8000f04:	f855 3b04 	ldr.w	r3, [r5], #4
 8000f08:	4798      	blx	r3
 8000f0a:	3601      	adds	r6, #1
 8000f0c:	e7ee      	b.n	8000eec <__libc_init_array+0xc>
 8000f0e:	f855 3b04 	ldr.w	r3, [r5], #4
 8000f12:	4798      	blx	r3
 8000f14:	3601      	adds	r6, #1
 8000f16:	e7f2      	b.n	8000efe <__libc_init_array+0x1e>
 8000f18:	08000f50 	.word	0x08000f50
 8000f1c:	08000f50 	.word	0x08000f50
 8000f20:	08000f50 	.word	0x08000f50
 8000f24:	08000f54 	.word	0x08000f54

08000f28 <_init>:
 8000f28:	b5f8      	push	{r3, r4, r5, r6, r7, lr}
 8000f2a:	bf00      	nop
 8000f2c:	bcf8      	pop	{r3, r4, r5, r6, r7}
 8000f2e:	bc08      	pop	{r3}
 8000f30:	469e      	mov	lr, r3
 8000f32:	4770      	bx	lr

08000f34 <_fini>:
 8000f34:	b5f8      	push	{r3, r4, r5, r6, r7, lr}
 8000f36:	bf00      	nop
 8000f38:	bcf8      	pop	{r3, r4, r5, r6, r7}
 8000f3a:	bc08      	pop	{r3}
 8000f3c:	469e      	mov	lr, r3
 8000f3e:	4770      	bx	lr
